ccollections
Counter
p0
((dp1
S'circuitri'
p2
I81
sS'orthogon'
p3
I1
sS'mtl-pariet'
p4
I1
sS'interocept'
p5
I8
sS'four'
p6
I61
sS'n-acetylaspart'
p7
I1
sS'putamen'
p8
I44
sS'whose'
p9
I7
sS'accur'
p10
I21
sS'parahippocamp'
p11
I36
sS'self-referenti'
p12
I8
sS'xtc'
p13
I1
sS'semitranspar'
p14
I1
sS'intermix'
p15
I1
sS'disorder-irrelev'
p16
I2
sS'maladapt'
p17
I8
sS'grapho-phonolog'
p18
I1
sS'four-item'
p19
I1
sS'downstream'
p20
I2
sS'caffein'
p21
I5
sS'voic'
p22
I14
sS'lumin'
p23
I1
sS'govern'
p24
I1
sS'affect'
p25
I270
sS'eshel'
p26
I1
sS'lidocain'
p27
I8
sS'fractal'
p28
I4
sS'mpfc-activ'
p29
I1
sS'saara'
p30
I1
sS'disturb'
p31
I30
sS'prize'
p32
I1
sS'antinocicept'
p33
I8
sS'ftcd-pet'
p34
I1
sS'task-posit'
p35
I1
sS'propens'
p36
I6
sS'vector'
p37
I3
sS'unpronounc'
p38
I1
sS'brain-injur'
p39
I1
sS'thalamo-cort'
p40
I2
sS'mli'
p41
I1
sS'word-gener'
p42
I2
sS'prosodi'
p43
I37
sS'non-western'
p44
I1
sS'second'
p45
I76
sS'sooth'
p46
I1
sS'aggreg'
p47
I1
sS'ill'
p48
I34
sS'oneself'
p49
I7
sS'illumin'
p50
I2
sS'even'
p51
I54
sS'neo'
p52
I1
sS'lexical-decis'
p53
I5
sS'homeostasi'
p54
I2
sS'asia'
p55
I1
sS'misattribut'
p56
I1
sS'new'
p57
I41
sS'net'
p58
I2
sS'payoff'
p59
I2
sS'ongo'
p60
I12
sS'avers'
p61
I48
sS'intellectu'
p62
I2
sS'anxiety-rel'
p63
I2
sS'ophthalm'
p64
I1
sS'hera'
p65
I2
sS'never'
p66
I7
sS'here'
p67
I69
sS'herd'
p68
I2
sS'met'
p69
I2
sS'munson'
p70
I1
sS'china'
p71
I2
sS'mes'
p72
I5
sS'sulcus'
p73
I60
sS'interpret'
p74
I44
sS'deterior'
p75
I2
sS'militari'
p76
I2
sS'k'
p77
I6
sS'model-predict'
p78
I1
sS'domain-gener'
p79
I2
sS'cue-induc'
p80
I10
sS'laser-stimul'
p81
I1
sS'synchronis'
p82
I4
sS'permit'
p83
I8
sS'non-depress'
p84
I3
sS'drd'
p85
I2
sS'controversi'
p86
I12
sS'volunt'
p87
I120
sS'immin'
p88
I1
sS'ground'
p89
I3
sS'hand-hold'
p90
I2
sS'tremend'
p91
I1
sS'time-vari'
p92
I4
sS'brought'
p93
I3
sS'topographi'
p94
I3
sS'moral'
p95
I3
sS'instabl'
p96
I3
sS'unit'
p97
I4
sS'spoke'
p98
I1
sS'right-superior-tempor'
p99
I1
sS'overshadow'
p100
I1
sS'concret'
p101
I18
sS'music'
p102
I8
sS'armi'
p103
I1
sS'strike'
p104
I13
sS'hrfs'
p105
I1
sS'type'
p106
I116
sS'interindividu'
p107
I6
sS'comorbid'
p108
I10
sS'relay'
p109
I2
sS'relax'
p110
I3
sS'relat'
p111
I484
sS'notic'
p112
I1
sS'warn'
p113
I2
sS'warm'
p114
I12
sS'adult'
p115
I130
sS'wari'
p116
I1
sS'hypoactiv'
p117
I13
sS'hold'
p118
I13
sS'generaliz'
p119
I4
sS'accid'
p120
I3
sS'with-arous'
p121
I2
sS'fronto-striatal-amygdala-midbrain'
p122
I1
sS'conceptu'
p123
I21
sS'stress-regul'
p124
I1
sS'treatment-fre'
p125
I1
sS'under'
p126
I180
sS'endow'
p127
I3
sS'mr-scanner'
p128
I1
sS'cerebrum'
p129
I1
sS'non-homonym'
p130
I2
sS'capsaicin'
p131
I10
sS'pain-rat'
p132
I1
sS'wane'
p133
I1
sS'synchron'
p134
I8
sS'two-dimension'
p135
I1
sS'digit'
p136
I1
sS'sarcasm-specif'
p137
I1
sS'frighten'
p138
I3
sS'nonaddit'
p139
I1
sS'caution'
p140
I2
sS'want'
p141
I2
sS'noveltyand'
p142
I1
sS'non-sign'
p143
I1
sS'motion'
p144
I39
sS'hoc'
p145
I6
sS'quot'
p146
I280
sS'foveocentr'
p147
I1
sS'travel'
p148
I1
sS'faulti'
p149
I1
sS'bimod'
p150
I2
sS'classifi'
p151
I15
sS'value-rel'
p152
I1
sS'how'
p153
I87
sS'hot'
p154
I8
sS'well-regard'
p155
I1
sS'confin'
p156
I2
sS'scrambl'
p157
I16
sS'answer'
p158
I2
sS'negoti'
p159
I1
sS'perspect'
p160
I11
sS'sato'
p161
I1
sS'value-bas'
p162
I2
sS'no-placebo'
p163
I1
sS'disson'
p164
I1
sS'alzheim'
p165
I22
sS'substanc'
p166
I15
sS'wrong'
p167
I1
sS'high-calori'
p168
I6
sS'phasic'
p169
I13
sS'mri-compat'
p170
I1
sS'aphasia-i'
p171
I1
sS'subcutan'
p172
I2
sS'trauma-rel'
p173
I3
sS'treatment-seek'
p174
I1
sS'attempt'
p175
I14
sS'vicin'
p176
I2
sS'post-roland'
p177
I1
sS'think'
p178
I17
sS'dispar'
p179
I3
sS'first'
p180
I97
sS'reaction-tim'
p181
I1
sS'face-respons'
p182
I1
sS'homotop'
p183
I1
sS'feedback'
p184
I69
sS'neuroimag'
p185
I118
sS'deck'
p186
I7
sS'upstream'
p187
I1
sS'facial'
p188
I266
sS'mumbl'
p189
I1
sS'reward-induc'
p190
I1
sS'appar'
p191
I16
sS'vari'
p192
I80
sS'early-stag'
p193
I2
sS'fit'
p194
I7
sS'vibratori'
p195
I2
sS'fix'
p196
I6
sS'homozyg'
p197
I1
sS'better'
p198
I29
sS'carri'
p199
I21
sS'auditori'
p200
I68
sS'preclin'
p201
I3
sS'schmidt'
p202
I1
sS'easier'
p203
I1
sS'time-seri'
p204
I1
sS'nonalphabet'
p205
I4
sS'anim'
p206
I49
sS'therapi'
p207
I17
sS'other-task'
p208
I1
sS'undervalu'
p209
I1
sS'working-memori'
p210
I3
sS'-sec'
p211
I3
sS'within-'
p212
I1
sS'twenty-f'
p213
I2
sS'promis'
p214
I7
sS'surgic'
p215
I1
sS'sixteen'
p216
I8
sS'grammat'
p217
I41
sS'near-isotrop'
p218
I1
sS'overvalu'
p219
I1
sS'debus'
p220
I1
sS'accommod'
p221
I2
sS'localis'
p222
I1
sS'arrow'
p223
I6
sS'higher'
p224
I82
sS'side'
p225
I19
sS'morphogram'
p226
I1
sS'bond'
p227
I1
sS'development'
p228
I20
sS'hippocampi'
p229
I1
sS'concord'
p230
I2
sS'laboratori'
p231
I6
sS'enorm'
p232
I1
sS'right-superior'
p233
I1
sS'spider'
p234
I8
sS'mdd'
p235
I68
sS'taught'
p236
I1
sS'gave'
p237
I6
sS'commiss'
p238
I2
sS'incomprehens'
p239
I2
sS'rt'
p240
I1
sS'frontal-tempor'
p241
I1
sS'rs'
p242
I4
sS'gradient'
p243
I5
sS'mood-stat'
p244
I1
sS'crucial'
p245
I24
sS'smr'
p246
I3
sS'content'
p247
I28
sS'hypothalam'
p248
I1
sS'adapt'
p249
I33
sS'spanish-catalan'
p250
I1
sS'reader'
p251
I7
sS'smg'
p252
I5
sS'rm'
p253
I7
sS'rh'
p254
I13
sS'sma'
p255
I13
sS'mccarthi'
p256
I1
sS'sensori'
p257
I65
sS'cholinerg'
p258
I1
sS'linear'
p259
I37
sS'performance-link'
p260
I1
sS'wherea'
p261
I142
sS'mood-incongru'
p262
I1
sS'situat'
p263
I37
sS'omiss'
p264
I7
sS'ineffici'
p265
I9
sS'disyllab'
p266
I1
sS'metanalysi'
p267
I3
sS'untreat'
p268
I2
sS'welfar'
p269
I1
sS'atd'
p270
I3
sS'accumul'
p271
I3
sS'isi'
p272
I1
sS'unabl'
p273
I1
sS'selfv'
p274
I1
sS'man-mad'
p275
I5
sS'loud'
p276
I1
sS'canonical-mirror'
p277
I1
sS'user'
p278
I24
sS'invigor'
p279
I1
sS'pallidum'
p280
I3
sS'grade'
p281
I13
sS'non-aphas'
p282
I1
sS'hungri'
p283
I3
sS'three-dimension'
p284
I1
sS'cpt-dt'
p285
I2
sS'noncanon'
p286
I4
sS'wash'
p287
I5
sS'instruct'
p288
I29
sS'multimod'
p289
I3
sS'pallidus'
p290
I5
sS'agre'
p291
I3
sS'heteromod'
p292
I8
sS'self-rat'
p293
I7
sS'bottom-up'
p294
I4
sS'acquaint'
p295
I2
sS'broca'
p296
I40
sS'occipito-tempor'
p297
I12
sS'silenc'
p298
I1
sS'calori'
p299
I3
sS'underlin'
p300
I3
sS'non-drug'
p301
I3
sS'intraven'
p302
I10
sS'listen'
p303
I22
sS'native-spac'
p304
I1
sS'nontraumat'
p305
I2
sS'low-valu'
p306
I2
sS'gym'
p307
I1
sS'direct'
p308
I114
sS'low-frequ'
p309
I4
sS'somewhat'
p310
I4
sS'iat'
p311
I2
sS'technic'
p312
I3
sS'symptom'
p313
I99
sS'liter'
p314
I36
sS'body-'
p315
I1
sS'connectionist'
p316
I1
sS'crave'
p317
I49
sS'ffa-superior'
p318
I1
sS'project'
p319
I13
sS'matter'
p320
I14
sS'anxieti'
p321
I40
sS'attention-deficit'
p322
I2
sS'viscer'
p323
I12
sS'pre-treat'
p324
I2
sS'language-process'
p325
I2
sS'orthographi'
p326
I7
sS'intra-pariet'
p327
I2
sS'entail'
p328
I5
sS'faceand'
p329
I1
sS'modern'
p330
I1
sS'mind'
p331
I14
sS'spectrum'
p332
I24
sS'compon'
p333
I101
sS'seed'
p334
I4
sS'nondement'
p335
I1
sS'increment'
p336
I4
sS'seen'
p337
I60
sS'seem'
p338
I27
sS'incompat'
p339
I6
sS'seek'
p340
I11
sS'dozen'
p341
I1
sS'irrevoc'
p342
I1
sS'face-specif'
p343
I1
sS'affect-elicit'
p344
I1
sS'that'
p345
I1896
sS'neuroendocrin'
p346
I1
sS'chest'
p347
I1
sS'overstimul'
p348
I1
sS'antinocept'
p349
I1
sS'davidson'
p350
I1
sS'simplifi'
p351
I3
sS'dysmetria'
p352
I1
sS'temporo-occipit'
p353
I5
sS'dot-mot'
p354
I1
sS'toxic'
p355
I1
sS'marit'
p356
I2
sS'object'
p357
I160
sS'acupunctur'
p358
I9
sS'regular'
p359
I15
sS'mouth'
p360
I13
sS'addict'
p361
I30
sS'letter'
p362
I74
sS'non-profici'
p363
I1
sS'prematur'
p364
I1
sS'tradit'
p365
I6
sS'simplic'
p366
I1
sS'configuration-bas'
p367
I1
sS'unexplain'
p368
I1
sS'unpleas'
p369
I49
sS'alarm'
p370
I3
sS'm'
p371
I37
sS'dog'
p372
I7
sS'hospit'
p373
I4
sS'homophoni'
p374
I1
sS'worsen'
p375
I1
sS'goal-set'
p376
I1
sS'propos'
p377
I42
sS'rotari'
p378
I2
sS'came'
p379
I1
sS'upregul'
p380
I3
sS'study-test'
p381
I1
sS'hunger'
p382
I9
sS'probe'
p383
I16
sS'microeconom'
p384
I1
sS'tobacco-depend'
p385
I1
sS'syntax'
p386
I10
sS'non-contamination-preoccupi'
p387
I1
sS'corticocort'
p388
I1
sS'value-and'
p389
I1
sS'socrat'
p390
I1
sS'risk-sensit'
p391
I1
sS'despit'
p392
I48
sS'non-monetari'
p393
I1
sS'fixed-temperatur'
p394
I4
sS'high-funct'
p395
I15
sS'menu'
p396
I1
sS'explain'
p397
I29
sS'juxtapos'
p398
I1
sS'mens'
p399
I1
sS'bush'
p400
I1
sS'sensation-percept'
p401
I1
sS'rich'
p402
I5
sS'well-establish'
p403
I3
sS'wide'
p404
I28
sS'fmri-lik'
p405
I1
sS'symmetr'
p406
I3
sS'flanker'
p407
I1
sS'earn'
p408
I3
sS'bar'
p409
I2
sS'bas'
p410
I6
sS'politician'
p411
I5
sS'random-effect'
p412
I7
sS'patch'
p413
I5
sS'bad'
p414
I2
sS'transcrani'
p415
I2
sS'bac'
p416
I5
sS'facilitatori'
p417
I1
sS'peltier'
p418
I1
sS'linguist'
p419
I27
sS'respond'
p420
I108
sS'fair'
p421
I2
sS'elimin'
p422
I3
sS'non-reward'
p423
I4
sS'stutter-rel'
p424
I2
sS'result'
p425
I523
sS'respons'
p426
I983
sS'fail'
p427
I26
sS'visuo-'
p428
I1
sS'y-boc'
p429
I2
sS'best'
p430
I7
sS'avert'
p431
I2
sS'lotz'
p432
I1
sS'said'
p433
I1
sS'geriatr'
p434
I1
sS'heterogen'
p435
I8
sS'cognitive-behavior'
p436
I1
sS'cloze'
p437
I1
sS'iri'
p438
I1
sS'figur'
p439
I13
sS'score'
p440
I56
sS'scorn'
p441
I1
sS'go-no'
p442
I1
sS'wtp'
p443
I3
sS'inabl'
p444
I4
sS'men'
p445
I71
sS'extend'
p446
I59
sS'phobia-relev'
p447
I2
sS'non-spati'
p448
I2
sS'extens'
p449
I47
sS'cut'
p450
I4
sS'macroscop'
p451
I1
sS'extent'
p452
I48
sS'toler'
p453
I9
sS'advertis'
p454
I3
sS'agonist'
p455
I2
sS'isocalor'
p456
I1
sS'whole-head'
p457
I3
sS'tingl'
p458
I3
sS'countri'
p459
I1
sS'uncertainti'
p460
I52
sS'psychopatholog'
p461
I6
sS'compromis'
p462
I8
sS'pre'
p463
I4
sS'assur'
p464
I1
sS'fifty-seven'
p465
I2
sS'buckner'
p466
I1
sS'precun'
p467
I1
sS'height'
p468
I2
sS'benefici'
p469
I6
sS'distracters-emot'
p470
I1
sS'calor'
p471
I1
sS'lexico-semant'
p472
I3
sS'summat'
p473
I5
sS'assum'
p474
I20
sS'summar'
p475
I1
sS'san'
p476
I2
sS'group-by-task'
p477
I2
sS'liabil'
p478
I1
sS'well-studi'
p479
I1
sS'well-funct'
p480
I1
sS'in-hous'
p481
I1
sS'frn'
p482
I4
sS'erect'
p483
I3
sS'trauma-histori'
p484
I1
sS'specul'
p485
I6
sS'orbitofrontal-striat'
p486
I2
sS'maudsley'
p487
I1
sS'much'
p488
I22
sS'interest'
p489
I48
sS'advers'
p490
I4
sS'threat-induc'
p491
I1
sS'somatoform'
p492
I2
sS'lifg'
p493
I16
sS'life'
p494
I19
sS'distast'
p495
I1
sS'lifc'
p496
I2
sS'deeper'
p497
I1
sS'mci'
p498
I19
sS'suppress'
p499
I31
sS'dismiss'
p500
I1
sS'mca'
p501
I1
sS'marijuana'
p502
I5
sS'efficaci'
p503
I7
sS'child'
p504
I12
sS'unfilt'
p505
I2
sS'spin'
p506
I1
sS'ganglia'
p507
I21
sS'forens'
p508
I1
sS'tank'
p509
I1
sS'dissect'
p510
I3
sS'intak'
p511
I16
sS'overweigh'
p512
I1
sS'employ'
p513
I29
sS'euclidean'
p514
I1
sS'near'
p515
I12
sS'antagon'
p516
I4
sS'detoxif'
p517
I5
sS'anchor'
p518
I1
sS'precise-mean'
p519
I1
sS'seven'
p520
I19
sS'iq'
p521
I16
sS'ip'
p522
I5
sS'mouss'
p523
I1
sS'noradrenerg'
p524
I2
sS'it'
p525
I254
sS'iv'
p526
I4
sS'ii'
p527
I28
sS'prototype-distort'
p528
I2
sS'elicit'
p529
I105
sS'eighteen'
p530
I7
sS'anhedonia'
p531
I12
sS'in'
p532
I6469
sS'ic'
p533
I5
sS'socioemot'
p534
I2
sS'ie'
p535
I3
sS'sever'
p536
I126
sS'if'
p537
I54
sS'grown'
p538
I1
sS'allel'
p539
I16
sS'undamag'
p540
I2
sS'receiv'
p541
I52
sS'make'
p542
I115
sS'gene-brain'
p543
I2
sS'split'
p544
I2
sS'subfield'
p545
I1
sS'european'
p546
I4
sS'a-delta'
p547
I1
sS'face-match'
p548
I3
sS'presurg'
p549
I1
sS'fronto-execut'
p550
I1
sS'grammar'
p551
I5
sS'mofc-amygdala'
p552
I1
sS'ownership'
p553
I1
sS'refin'
p554
I1
sS'middle-rank'
p555
I1
sS'amyg'
p556
I1
sS'overt'
p557
I37
sS'inferior-tempor'
p558
I1
sS'tune'
p559
I1
sS'fourier'
p560
I1
sS'catalan'
p561
I3
sS'stimuli'
p562
I489
sS'mdd-specif'
p563
I1
sS'smoker'
p564
I45
sS'inherit'
p565
I1
sS'qualit'
p566
I7
sS'prefront'
p567
I632
sS'hypnosi'
p568
I4
sS'letter-by-lett'
p569
I2
sS'programm'
p570
I1
sS'paradigm'
p571
I127
sS'hyperrespons'
p572
I5
sS'unchang'
p573
I1
sS'neuroendophenotyp'
p574
I1
sS'identifi'
p575
I152
sS'just'
p576
I14
sS'human'
p577
I258
sS'between-group'
p578
I27
sS'acetylsalicyl'
p579
I1
sS'yet'
p580
I44
sS'languag'
p581
I240
sS'previous'
p582
I233
sS'discourse-level'
p583
I1
sS'discriminatori'
p584
I1
sS'easi'
p585
I4
sS'had'
p586
I157
sS'ideal'
p587
I2
sS'sensat'
p588
I20
sS'ftcd'
p589
I4
sS'prison'
p590
I1
sS'has'
p591
I235
sS'tast'
p592
I5
sS'applic'
p593
I11
sS'coron'
p594
I2
sS'preserv'
p595
I6
sS'category-neutr'
p596
I2
sS'greatest'
p597
I6
sS'background'
p598
I2
sS'elabor'
p599
I8
sS'involuntari'
p600
I3
sS'self-monitor'
p601
I2
sS'water-rel'
p602
I2
sS'measur'
p603
I213
sS'single-subject'
p604
I6
sS'specif'
p605
I220
sS'right-hemispher'
p606
I9
sS'manual'
p607
I7
sS'viscera'
p608
I3
sS'medial-tempor'
p609
I3
sS'remind'
p610
I1
sS'reading-aloud'
p611
I1
sS'debilit'
p612
I1
sS'confront'
p613
I11
sS'incoher'
p614
I4
sS'unnecessari'
p615
I1
sS'underli'
p616
I32
sS'right'
p617
I596
sS'ofc-striat'
p618
I2
sS'deal'
p619
I7
sS'interv'
p620
I8
sS'disord'
p621
I227
sS'card-play'
p622
I1
sS'somehow'
p623
I1
sS'pseudo-random'
p624
I1
sS'intern'
p625
I42
sS'verb-rel'
p626
I1
sS'pain'
p627
I685
sS'inact'
p628
I2
sS'transmiss'
p629
I2
sS'insensit'
p630
I3
sS'trace'
p631
I4
sS'for'
p632
I1264
sS'nervosa'
p633
I5
sS'supratempor'
p634
I1
sS'willingness-to-pay'
p635
I1
sS'condit'
p636
I402
sS'idiomat'
p637
I3
sS'bold'
p638
I113
sS'pre-motor'
p639
I1
sS'domain-specif'
p640
I2
sS'dysfluency-evok'
p641
I1
sS'undifferenti'
p642
I1
sS'protagonist'
p643
I1
sS'yoke'
p644
I2
sS'promot'
p645
I14
sS'anagram'
p646
I3
sS'goldman-rak'
p647
I1
sS'pin-prick'
p648
I5
sS'high-resolut'
p649
I1
sS'foregon'
p650
I1
sS'coregistr'
p651
I1
sS'non-allodyn'
p652
I2
sS'antihyperalges'
p653
I4
sS'metanalys'
p654
I3
sS'o'
p655
I34
sS'simul'
p656
I15
sS'dining-rel'
p657
I1
sS'neuropathophysiolog'
p658
I1
sS'unequivoc'
p659
I2
sS'leptin'
p660
I4
sS'ftcd-fmri'
p661
I1
sS'cuneus'
p662
I13
sS'hallmark'
p663
I4
sS'down'
p664
I2
sS'creativ'
p665
I6
sS'resili'
p666
I1
sS'mbq'
p667
I1
sS'genotyp'
p668
I2
sS'surround'
p669
I2
sS'low-n'
p670
I2
sS'suffici'
p671
I12
sS'support'
p672
I160
sS'happi'
p673
I138
sS'avail'
p674
I25
sS'width'
p675
I1
sS'single-cod'
p676
I1
sS'fraction'
p677
I1
sS'to-be-gener'
p678
I1
sS'much-need'
p679
I1
sS'right-tl'
p680
I2
sS'analysi'
p681
I182
sS'under-explor'
p682
I1
sS'form'
p683
I87
sS'offer'
p684
I8
sS'forc'
p685
I1
sS'recommend'
p686
I1
sS'shoot'
p687
I1
sS'substrat'
p688
I93
sS'antisoci'
p689
I7
sS'frontal-striat'
p690
I5
sS'synonym'
p691
I2
sS'unrev'
p692
I1
sS'one-way'
p693
I1
sS'disease-rel'
p694
I1
sS'periaqueduct'
p695
I6
sS'until'
p696
I2
sS'near-miss-rel'
p697
I1
sS'down-regul'
p698
I4
sS'double-subtract'
p699
I1
sS'ventro-later'
p700
I1
sS'feet'
p701
I4
sS'abstract-concret'
p702
I1
sS'classif'
p703
I19
sS'object-fear'
p704
I1
sS'psychostimul'
p705
I1
sS'low-perform'
p706
I3
sS'classic'
p707
I21
sS'cerebro-cerebellar'
p708
I2
sS'covert'
p709
I20
sS'pragmat'
p710
I12
sS'mirror'
p711
I22
sS'diagnosi'
p712
I8
sS'proven'
p713
I1
sS'nonpsychot'
p714
I9
sS'well-recogn'
p715
I1
sS'diagnost'
p716
I9
sS'exist'
p717
I35
sS'gyri'
p718
I80
sS'ill-defin'
p719
I1
sS'actor'
p720
I1
sS'flood'
p721
I1
sS'role'
p722
I181
sS'communic'
p723
I20
sS'pictori'
p724
I4
sS'presum'
p725
I6
sS'cortex'
p726
I1238
sS'matur'
p727
I2
sS'notif'
p728
I2
sS'intend'
p729
I4
sS'subdivid'
p730
I2
sS'devot'
p731
I4
sS'speech-specif'
p732
I2
sS'felt'
p733
I2
sS'diet'
p734
I2
sS'intens'
p735
I177
sS'intent'
p736
I15
sS'subdivis'
p737
I3
sS'femal'
p738
I87
sS'societ'
p739
I1
sS'faces--suggest'
p740
I1
sS'furthermor'
p741
I78
sS'emotion-associ'
p742
I3
sS'fsl'
p743
I2
sS'-hz'
p744
I2
sS'geometr'
p745
I1
sS'time'
p746
I141
sS'shallowli'
p747
I1
sS'load-rel'
p748
I1
sS'daili'
p749
I7
sS'covariance-bas'
p750
I1
sS'action-bas'
p751
I3
sS'chain'
p752
I1
sS'skip'
p753
I1
sS'mild'
p754
I39
sS'lexicon'
p755
I2
sS'no-task'
p756
I1
sS'unconstrain'
p757
I1
sS'fronto-thalamo-cerebellar'
p758
I1
sS'chair'
p759
I2
sS'hierarch'
p760
I12
sS'self-pac'
p761
I7
sS'decid'
p762
I21
sS'depend'
p763
I125
sS'ves'
p764
I1
sS'cortex-precuneus'
p765
I1
sS'four-arm'
p766
I1
sS'intermedi'
p767
I3
sS'substitut'
p768
I5
sS'face-rel'
p769
I2
sS'paramedian'
p770
I1
sS'mathemat'
p771
I2
sS'decis'
p772
I240
sS'unknown-sad'
p773
I1
sS'semantic-level'
p774
I1
sS'me'
p775
I5
sS'string'
p776
I15
sS'two-way'
p777
I2
sS'culmen'
p778
I2
sS'hyperactivit'
p779
I1
sS'erp'
p780
I20
sS'-mm'
p781
I1
sS'exact'
p782
I4
sS'dim'
p783
I1
sS'task-specif'
p784
I8
sS'solver'
p785
I2
sS'did'
p786
I115
sS'reproduc'
p787
I10
sS'posterror'
p788
I1
sS'iter'
p789
I1
sS'magnet'
p790
I513
sS'item'
p791
I73
sS'concurr'
p792
I8
sS'overlaid'
p793
I1
sS'round'
p794
I2
sS'intensity--depend'
p795
I1
sS'prevent'
p796
I13
sS'handwrit'
p797
I1
sS'compens'
p798
I10
sS'sign'
p799
I12
sS'inverted-mirror'
p800
I1
sS'amygdala-hippocampus'
p801
I2
sS'afghanistan'
p802
I1
sS'letter-spati'
p803
I1
sS'currenc'
p804
I3
sS'caudatus'
p805
I1
sS'favour'
p806
I1
sS'brodmann'
p807
I35
sS'current'
p808
I69
sS'subject-rel'
p809
I1
sS'suspect'
p810
I1
sS'westmacott'
p811
I2
sS'lip-read'
p812
I3
sS'neurobehavior'
p813
I3
sS'leptin-revers'
p814
I2
sS'ffa-amygdala'
p815
I2
sS'picture-word'
p816
I1
sS'deriv'
p817
I25
sS'mr'
p818
I9
sS'onli'
p819
I178
sS'french'
p820
I3
sS'cue-outcom'
p821
I1
sS'low-energy-dens'
p822
I1
sS'modif'
p823
I3
sS'address'
p824
I39
sS'along'
p825
I36
sS'tasks-demonstr'
p826
I1
sS'wait'
p827
I2
sS'boy'
p828
I8
sS'within-region'
p829
I1
sS'invit'
p830
I2
sS'meso-corticolimb'
p831
I1
sS'root'
p832
I2
sS'letter-medi'
p833
I1
sS'women'
p834
I104
sS'extrem'
p835
I3
sS'prefrontal-orbitofront'
p836
I1
sS'transact'
p837
I2
sS'o-water-bolus'
p838
I1
sS'associative-encod'
p839
I1
sS'love'
p840
I23
sS'inter-hemispher'
p841
I3
sS'anteromedi'
p842
I2
sS'modul'
p843
I172
sS'prefer'
p844
I48
sS'ipl'
p845
I8
sS'pretreat'
p846
I6
sS'ipv'
p847
I1
sS'fake'
p848
I1
sS'kinet'
p849
I1
sS'eyes-clos'
p850
I1
sS'three-argu'
p851
I2
sS'wealth'
p852
I1
sS'never-depress'
p853
I6
sS'spatiotempor'
p854
I1
sS'sake'
p855
I1
sS'give'
p856
I5
sS'impos'
p857
I2
sS'cognitive-evalu'
p858
I1
sS'scope'
p859
I1
sS'angri'
p860
I32
sS'yes'
p861
I4
sS'rorschach'
p862
I2
sS'afford'
p863
I5
sS'peopl'
p864
I66
sS'claus'
p865
I6
sS'frontolater'
p866
I1
sS'refrain'
p867
I2
sS'enhanc'
p868
I107
sS'visual'
p869
I380
sS'withdrawn'
p870
I1
sS'examin'
p871
I243
sS'effort'
p872
I22
sS'clbp'
p873
I8
sS'ultraviolet'
p874
I1
sS'pseudoword'
p875
I28
sS'pgacc'
p876
I9
sS'uniqu'
p877
I38
sS'descriptor'
p878
I2
sS'thermod'
p879
I7
sS'whatev'
p880
I1
sS'preclud'
p881
I1
sS'peri-roland'
p882
I1
sS'problemat'
p883
I2
sS'claim'
p884
I11
sS'endocrin'
p885
I1
sS'innocu'
p886
I23
sS'alexithymia'
p887
I1
sS'predict'
p888
I226
sS'non-linguist'
p889
I2
sS'agent'
p890
I3
sS'subregion'
p891
I13
sS'false-posit'
p892
I1
sS'disadvantag'
p893
I4
sS'agenc'
p894
I1
sS'uncorrect'
p895
I1
sS'fpc'
p896
I3
sS'attract'
p897
I23
sS'get'
p898
I1
sS'bidimension'
p899
I1
sS'pure'
p900
I11
sS'nonabus'
p901
I1
sS'non-overlap'
p902
I2
sS'pathway'
p903
I35
sS'undertook'
p904
I5
sS'underconnect'
p905
I2
sS'edinburgh'
p906
I1
sS'risk-neutr'
p907
I2
sS'may'
p908
I425
sS'max'
p909
I1
sS'symptom-provoc'
p910
I1
sS'psychophysiolog'
p911
I8
sS'risk-level'
p912
I1
sS'world-knowledg'
p913
I2
sS'snp'
p914
I4
sS'date'
p915
I12
sS'such'
p916
I218
sS'underscor'
p917
I4
sS'data'
p918
I222
sS'grow'
p919
I7
sS'high-energi'
p920
I1
sS'man'
p921
I1
sS'sz'
p922
I4
sS'stress'
p923
I24
sS'noun'
p924
I112
sS'neck'
p925
I1
sS'conscious'
p926
I35
sS'ss'
p927
I4
sS'sr'
p928
I4
sS'sp'
p929
I1
sS'lose-shift'
p930
I2
sS'avenu'
p931
I1
sS'st'
p932
I2
sS'quadrant'
p933
I3
sS'si'
p934
I23
sS'tailor'
p935
I1
sS'so'
p936
I30
sS'sm'
p937
I2
sS'sublimin'
p938
I7
sS'fp-pfc'
p939
I3
sS'sg'
p940
I7
sS'sf'
p941
I2
sS'se'
p942
I13
sS'sd'
p943
I18
sS'delay-period'
p944
I2
sS'extrins'
p945
I4
sS'perspective-tak'
p946
I4
sS'noteworthi'
p947
I1
sS'hack'
p948
I1
sS'entitl'
p949
I1
sS'epilepsi'
p950
I2
sS'entiti'
p951
I2
sS'reinforc'
p952
I57
sS'interspers'
p953
I1
sS'disconnect'
p954
I5
sS'monitor'
p955
I31
sS'r-vwfa'
p956
I2
sS'devianc'
p957
I2
sS'dysfunct'
p958
I92
sS'maid'
p959
I2
sS'main'
p960
I71
sS'ascrib'
p961
I3
sS'morbid'
p962
I1
sS'tonic'
p963
I15
sS'civilian'
p964
I1
sS'financi'
p965
I31
sS'shatter'
p966
I1
sS'initi'
p967
I42
sS'nation'
p968
I2
sS'lunch'
p969
I1
sS'therebi'
p970
I8
sS'gate'
p971
I6
sS'possess'
p972
I2
sS'anteced'
p973
I1
sS'fissur'
p974
I1
sS'revers'
p975
I67
sS'tiger'
p976
I1
sS'focuss'
p977
I2
sS'nonfood'
p978
I4
sS'separ'
p979
I69
sS'retrospleni'
p980
I11
sS'infus'
p981
I7
sS'confid'
p982
I1
sS'nonconsci'
p983
I3
sS'median'
p984
I3
sS'receipt'
p985
I22
sS'continu'
p986
I29
sS'co-work'
p987
I1
sS'ketamine-induc'
p988
I1
sS'yield'
p989
I39
sS'monosyl'
p990
I1
sS'girl'
p991
I3
sS'conting'
p992
I27
sS'hcs'
p993
I10
sS'announc'
p994
I1
sS'-weight'
p995
I3
sS'trauma'
p996
I4
sS'intersubject'
p997
I9
sS'dutch'
p998
I1
sS'bla'
p999
I5
sS'correct'
p1000
I50
sS'romanc'
p1001
I1
sS'diseas'
p1002
I37
sS'mesofront'
p1003
I1
sS'neuroeconom'
p1004
I2
sS'load-depend'
p1005
I1
sS'unpublish'
p1006
I1
sS'armfc'
p1007
I1
sS'california'
p1008
I1
sS'romant'
p1009
I7
sS'institut'
p1010
I4
sS'unpredict'
p1011
I11
sS'recod'
p1012
I3
sS'question'
p1013
I32
sS'frequenc'
p1014
I37
sS'schyn'
p1015
I1
sS'modest'
p1016
I1
sS'unavoid'
p1017
I2
sS'recov'
p1018
I8
sS'thing'
p1019
I5
sS'databas'
p1020
I1
sS'principl'
p1021
I7
sS'neglect'
p1022
I5
sS'frequent'
p1023
I18
sS'cognitive-control'
p1024
I2
sS'oper'
p1025
I25
sS'cross-cultur'
p1026
I1
sS'oppon'
p1027
I7
sS'improvis'
p1028
I1
sS'spoken'
p1029
I7
sS'distal'
p1030
I1
sS'parkinson'
p1031
I2
sS'one'
p1032
I180
sS'-control'
p1033
I1
sS'acquisit'
p1034
I31
sS'bold-respons'
p1035
I1
sS'fast'
p1036
I14
sS'cbt'
p1037
I3
sS'spanish'
p1038
I6
sS'oppos'
p1039
I14
sS'semantic-knowledg'
p1040
I1
sS'open'
p1041
I1
sS'second-level'
p1042
I3
sS'fmri'
p1043
I645
sS'capac'
p1044
I35
sS'convent'
p1045
I18
sS'cortico-striatal-thalam'
p1046
I1
sS'fmr'
p1047
I1
sS'pmav'
p1048
I2
sS'dual-rout'
p1049
I2
sS'munksgaard'
p1050
I2
sS'averag'
p1051
I25
sS'pre-scan'
p1052
I1
sS'proposit'
p1053
I7
sS'forthcom'
p1054
I4
sS'opioid-depend'
p1055
I1
sS'activity-rel'
p1056
I1
sS'artifact'
p1057
I10
sS'broadcast'
p1058
I1
sS'hyperalgesia'
p1059
I21
sS'interrel'
p1060
I3
sS'mtbi'
p1061
I7
sS'third'
p1062
I16
sS'psychopathi'
p1063
I11
sS'symptom-checklist'
p1064
I1
sS'condition-despit'
p1065
I1
sS'were'
p1066
I1277
sS'nuisanc'
p1067
I2
sS'surrog'
p1068
I1
sS'typographi'
p1069
I1
sS'prospect'
p1070
I17
sS'lick'
p1071
I1
sS'influenti'
p1072
I3
sS'galantamin'
p1073
I4
sS'argument'
p1074
I9
sS'sad'
p1075
I110
sS'say'
p1076
I1
sS'multiround'
p1077
I1
sS'inkblot'
p1078
I3
sS'turner'
p1079
I1
sS'pregenu'
p1080
I8
sS'saw'
p1081
I4
sS'posterolater'
p1082
I2
sS'squar'
p1083
I4
sS'advic'
p1084
I10
sS'first-episod'
p1085
I15
sS'mononeuropathi'
p1086
I3
sS'consortium'
p1087
I3
sS'note'
p1088
I10
sS'prime-target'
p1089
I1
sS'checkerboard'
p1090
I1
sS'take'
p1091
I27
sS'task-isol'
p1092
I1
sS'environ'
p1093
I26
sS'noth'
p1094
I6
sS'channel'
p1095
I3
sS'pulvinar'
p1096
I3
sS'indo-european'
p1097
I2
sS'offload'
p1098
I1
sS'memory-enhanc'
p1099
I1
sS'normal'
p1100
I178
sS'track'
p1101
I13
sS'non-associ'
p1102
I2
sS'compress'
p1103
I5
sS'childhood-onset'
p1104
I1
sS'paid'
p1105
I1
sS'exclus'
p1106
I14
sS'dopamine-medi'
p1107
I1
sS'abus'
p1108
I18
sS'tract'
p1109
I3
sS'positivity-evalu'
p1110
I2
sS'knee'
p1111
I2
sS'postscan'
p1112
I4
sS'normat'
p1113
I4
sS'allevi'
p1114
I2
sS'wordand'
p1115
I1
sS'drive'
p1116
I12
sS'hypnosis-rel'
p1117
I1
sS'mid-dorsolater'
p1118
I7
sS'axe'
p1119
I2
sS'hemiparet'
p1120
I1
sS'axi'
p1121
I3
sS'no-choic'
p1122
I2
sS'translat'
p1123
I7
sS'multilingu'
p1124
I2
sS'rule-bas'
p1125
I1
sS'mid-insular'
p1126
I1
sS'show'
p1127
I644
sS'elat'
p1128
I4
sS'schizophr'
p1129
I1
sS'energy-dens'
p1130
I5
sS'right-front'
p1131
I1
sS'concomit'
p1132
I13
sS'subprocess'
p1133
I2
sS'signal-to-nois'
p1134
I1
sS'threshold'
p1135
I19
sS'corner'
p1136
I1
sS'label'
p1137
I29
sS'contemporari'
p1138
I1
sS'slot'
p1139
I2
sS'slow'
p1140
I6
sS'ketamin'
p1141
I23
sS'incongru'
p1142
I20
sS'imbal'
p1143
I1
sS'activ'
p1144
I3141
sS'either'
p1145
I135
sS'intracrani'
p1146
I1
sS'parametr'
p1147
I44
sS'black'
p1148
I1
sS'functions-such'
p1149
I1
sS'voluntari'
p1150
I11
sS'dissimilar'
p1151
I1
sS'visualis'
p1152
I1
sS'intra-hemispher'
p1153
I1
sS'unpaced-covert'
p1154
I1
sS'object-emot'
p1155
I1
sS'secondari'
p1156
I46
sS'irradi'
p1157
I2
sS'gea'
p1158
I1
sS'georg'
p1159
I1
sS'partially-sil'
p1160
I1
sS'vermi'
p1161
I9
sS'reward-punish'
p1162
I1
sS'premorbid'
p1163
I1
sS'requir'
p1164
I134
sS'prime'
p1165
I43
sS'familiarity-bas'
p1166
I1
sS'mechano-recept'
p1167
I1
sS'cross-mod'
p1168
I7
sS'temporopolar'
p1169
I1
sS'medial'
p1170
I250
sS'task-igt'
p1171
I1
sS'twelv'
p1172
I31
sS'region-specif'
p1173
I1
sS'mediat'
p1174
I95
sS'london'
p1175
I4
sS'ancova'
p1176
I3
sS'where'
p1177
I44
sS'vision'
p1178
I1
sS'summari'
p1179
I7
sS'forty-on'
p1180
I1
sS'long-last'
p1181
I3
sS'intra-cerebellar'
p1182
I1
sS'surgeri'
p1183
I1
sS'load-respons'
p1184
I8
sS'regressor'
p1185
I2
sS'seat'
p1186
I1
sS'intensity-depend'
p1187
I2
sS'reserv'
p1188
I43
sS'jeong'
p1189
I1
sS'wonder'
p1190
I1
sS'hous'
p1191
I16
sS'innov'
p1192
I2
sS'satieti'
p1193
I10
sS'sertralin'
p1194
I2
sS'ubiquit'
p1195
I1
sS'frontolimb'
p1196
I2
sS'nonmed'
p1197
I1
sS'enough'
p1198
I1
sS'volatil'
p1199
I3
sS'ftcd-h'
p1200
I1
sS'across'
p1201
I108
sS'spars'
p1202
I2
sS'reward-predict'
p1203
I1
sS'parent'
p1204
I5
sS'picture-match'
p1205
I2
sS'screen'
p1206
I2
sS'tacit'
p1207
I1
sS'spare'
p1208
I5
sS'olanzapin'
p1209
I15
sS'encoding-rel'
p1210
I2
sS'-mouth'
p1211
I5
sS'cycl'
p1212
I2
sS'self-induc'
p1213
I2
sS'unreciproc'
p1214
I1
sS's'
p1215
I292
sS'mani'
p1216
I48
sS'emiss'
p1217
I82
sS'peri-infarct'
p1218
I1
sS'among'
p1219
I38
sS'acceler'
p1220
I2
sS'intensity-rel'
p1221
I1
sS'bold-clust'
p1222
I1
sS'exagger'
p1223
I4
sS'left-hemispher'
p1224
I9
sS'extinct'
p1225
I7
sS'ultim'
p1226
I4
sS'comb'
p1227
I5
sS'accumben'
p1228
I44
sS'non-soci'
p1229
I4
sS'suicid'
p1230
I1
sS'mark'
p1231
I10
sS'group-mean'
p1232
I1
sS'reflex'
p1233
I1
sS'gist'
p1234
I1
sS'fronto-subcort'
p1235
I1
sS'psychotherapi'
p1236
I1
sS'resolut'
p1237
I11
sS'photon'
p1238
I1
sS'within-claus'
p1239
I1
sS'psychosi'
p1240
I16
sS'reward-rel'
p1241
I19
sS'bayesian'
p1242
I1
sS'univers'
p1243
I8
sS'extant'
p1244
I1
sS'money-induc'
p1245
I1
sS'former'
p1246
I5
sS'those'
p1247
I100
sS'ptsd'
p1248
I55
sS'sound'
p1249
I19
sS'scale-vers'
p1250
I1
sS'invok'
p1251
I6
sS'outcom'
p1252
I117
sS'invoc'
p1253
I1
sS'margin'
p1254
I2
sS'region'
p1255
I1176
sS'ventroanterior'
p1256
I1
sS'planar'
p1257
I2
sS'organiz'
p1258
I4
sS'advantag'
p1259
I20
sS'broca-homologu'
p1260
I1
sS're-analys'
p1261
I1
sS'canon'
p1262
I6
sS'quiet'
p1263
I1
sS'strain'
p1264
I1
sS'sudden'
p1265
I3
sS'between-particip'
p1266
I1
sS'protein'
p1267
I7
sS'pursu'
p1268
I1
sS'everyday'
p1269
I9
sS'dose-respons'
p1270
I1
sS'par'
p1271
I18
sS'pay'
p1272
I1
sS'econom'
p1273
I25
sS'same'
p1274
I130
sS'binari'
p1275
I2
sS'subthreshold'
p1276
I1
sS'speech'
p1277
I113
sS'capacity-constrain'
p1278
I3
sS'promin'
p1279
I19
sS'dialectic-behavioral-therapi'
p1280
I1
sS'breakdown'
p1281
I2
sS'assist'
p1282
I2
sS'overestim'
p1283
I1
sS'capabl'
p1284
I4
sS'disguis'
p1285
I1
sS'driven'
p1286
I10
sS'high-intens'
p1287
I3
sS'extern'
p1288
I40
sS'stimulus-depend'
p1289
I1
sS'defi'
p1290
I1
sS'o-wat'
p1291
I1
sS'appropri'
p1292
I17
sS'response-conflict'
p1293
I1
sS'genit'
p1294
I1
sS'know'
p1295
I4
sS'content-rel'
p1296
I2
sS'individual-differ'
p1297
I1
sS'amygdalar'
p1298
I8
sS'unexplor'
p1299
I2
sS'model-bas'
p1300
I2
sS'hippocamp'
p1301
I35
sS'parietotempor'
p1302
I1
sS'content-specif'
p1303
I1
sS'execut'
p1304
I68
sS'vmpfc-acc'
p1305
I3
sS'autobiograph'
p1306
I6
sS'rest'
p1307
I67
sS'weight-reduc'
p1308
I1
sS'reward-bas'
p1309
I5
sS'reward-anticip'
p1310
I1
sS'nonstimul'
p1311
I1
sS'ethyl'
p1312
I1
sS'concentr'
p1313
I6
sS'post-scan'
p1314
I2
sS'fvm'
p1315
I2
sS'wiley-liss'
p1316
I30
sS'compression-rel'
p1317
I2
sS'littl'
p1318
I45
sS'instrument'
p1319
I10
sS'exercis'
p1320
I5
sS'pill'
p1321
I1
sS'rejoic'
p1322
I7
sS'around'
p1323
I6
sS'whi'
p1324
I7
sS'dark'
p1325
I1
sS'categoris'
p1326
I5
sS'temperatur'
p1327
I18
sS'self-gener'
p1328
I2
sS'world'
p1329
I8
sS'uninvestig'
p1330
I2
sS'future-mind'
p1331
I2
sS'gender-rel'
p1332
I1
sS'energ'
p1333
I1
sS'hippocampal-later'
p1334
I1
sS'stranger'
p1335
I10
sS'fronto-striato-thalam'
p1336
I1
sS'caudat'
p1337
I57
sS'spm-'
p1338
I2
sS'stationari'
p1339
I2
sS'pole'
p1340
I33
sS'para-'
p1341
I1
sS'caudal'
p1342
I7
sS'rcma'
p1343
I4
sS'vmpfc'
p1344
I35
sS'manag'
p1345
I7
sS'face-select'
p1346
I4
sS'supplementari'
p1347
I47
sS'other-pain'
p1348
I1
sS'underweight'
p1349
I2
sS'participl'
p1350
I1
sS'ascend'
p1351
I2
sS'muscl'
p1352
I13
sS'adequ'
p1353
I12
sS'audio-visu'
p1354
I9
sS'constitut'
p1355
I9
sS'forgon'
p1356
I1
sS'gross'
p1357
I1
sS'hypo-activ'
p1358
I2
sS'confirm'
p1359
I44
sS'low-constraint'
p1360
I1
sS'definit'
p1361
I4
sS'stimulus-reward'
p1362
I1
sS'anatomofunct'
p1363
I1
sS'evolv'
p1364
I1
sS'inject'
p1365
I12
sS'amino'
p1366
I1
sS'notabl'
p1367
I16
sS'refer'
p1368
I38
sS'power'
p1369
I30
sS'timeseri'
p1370
I1
sS'ration'
p1371
I9
sS'prefrontal-pariet'
p1372
I6
sS'winocur'
p1373
I1
sS'cornerston'
p1374
I1
sS'cue-rel'
p1375
I1
sS'dpin'
p1376
I2
sS'acc'
p1377
I123
sS'stone'
p1378
I1
sS'acg'
p1379
I7
sS'acd'
p1380
I6
sS'low-reward'
p1381
I2
sS'ach'
p1382
I2
sS'fronto-striat'
p1383
I1
sS'risk-avers'
p1384
I5
sS'arthriti'
p1385
I1
sS'neighbor'
p1386
I5
sS'act'
p1387
I8
sS'mean'
p1388
I129
sS'disease-specif'
p1389
I1
sS'effici'
p1390
I11
sS'trauma-exposur'
p1391
I1
sS'stria'
p1392
I1
sS'reutil'
p1393
I1
sS'gender-bas'
p1394
I3
sS'study-phas'
p1395
I1
sS'surviv'
p1396
I3
sS'vigil'
p1397
I4
sS'person-specif'
p1398
I3
sS'asymptomat'
p1399
I1
sS'pivot'
p1400
I5
sS'corticostriat'
p1401
I1
sS'wada'
p1402
I5
sS'cingulo-front'
p1403
I2
sS'her'
p1404
I7
sS'striatum'
p1405
I140
sS'apolipoprotein'
p1406
I1
sS'no-go'
p1407
I2
sS'stress-rel'
p1408
I1
sS'occipitotempor'
p1409
I16
sS'conclud'
p1410
I39
sS'bundl'
p1411
I1
sS'warrington'
p1412
I2
sS'amplifi'
p1413
I1
sS'face-evok'
p1414
I1
sS'mediali'
p1415
I2
sS'apic'
p1416
I1
sS'high-frequ'
p1417
I6
sS'categor'
p1418
I17
sS'conclus'
p1419
I18
sS'self-evalu'
p1420
I1
sS'education-match'
p1421
I1
sS'cytoarchitecton'
p1422
I4
sS'algorithm'
p1423
I4
sS'possibl'
p1424
I83
sS'phobia-rel'
p1425
I1
sS'temporolater'
p1426
I1
sS'attend-fac'
p1427
I2
sS'attachment-medi'
p1428
I1
sS'unusu'
p1429
I1
sS'exemplar'
p1430
I4
sS'caudo-rostr'
p1431
I1
sS'embed'
p1432
I10
sS'puls'
p1433
I4
sS'haloperidol'
p1434
I2
sS'multiregion'
p1435
I1
sS'ad'
p1436
I50
sS'creat'
p1437
I8
sS'ai'
p1438
I13
sS'certain'
p1439
I22
sS'accentu'
p1440
I1
sS'al'
p1441
I22
sS'deep'
p1442
I17
sS'an'
p1443
I618
sS'as'
p1444
I876
sS'au'
p1445
I1
sS'at'
p1446
I284
sS'follow-up'
p1447
I6
sS'av'
p1448
I3
sS'ax'
p1449
I2
sS'gamma-band'
p1450
I1
sS'diffusion-weight'
p1451
I1
sS'cream'
p1452
I4
sS'depression-specif'
p1453
I1
sS'nouns-verb'
p1454
I1
sS'arrowhead'
p1455
I1
sS'rightand'
p1456
I1
sS'extract'
p1457
I8
sS'hybrid'
p1458
I1
sS'abolish'
p1459
I1
sS'tight'
p1460
I1
sS'interregion'
p1461
I4
sS'midlin'
p1462
I3
sS'non-speech'
p1463
I7
sS'bipariet'
p1464
I1
sS'contend'
p1465
I1
sS'bmi'
p1466
I3
sS'intertempor'
p1467
I2
sS'suscept'
p1468
I11
sS'parieto-insular'
p1469
I1
sS'gyrus'
p1470
I486
sS'vofc'
p1471
I2
sS'shift'
p1472
I25
sS'off-lin'
p1473
I1
sS'palat'
p1474
I1
sS'yoshimoto'
p1475
I1
sS'mask'
p1476
I29
sS'language-rel'
p1477
I8
sS'multi-attribut'
p1478
I3
sS'mimic'
p1479
I1
sS'mass'
p1480
I2
sS'nelson'
p1481
I1
sS'education-compar'
p1482
I1
sS'callosum'
p1483
I1
sS'wake'
p1484
I4
sS'cpt'
p1485
I4
sS'phylogenetical'
p1486
I1
sS'represent'
p1487
I139
sS'subacut'
p1488
I1
sS'sci'
p1489
I2
sS'consider'
p1490
I22
sS'illustr'
p1491
I9
sS'schizophren'
p1492
I50
sS'standardis'
p1493
I3
sS'two-back'
p1494
I13
sS'mni'
p1495
I1
sS'extrapol'
p1496
I1
sS'reson'
p1497
I509
sS'temporopariet'
p1498
I11
sS'second-ord'
p1499
I7
sS'children'
p1500
I95
sS'cross-sect'
p1501
I4
sS'scr'
p1502
I4
sS'unansw'
p1503
I1
sS'lesion-deficit'
p1504
I2
sS'well-learn'
p1505
I1
sS'tr'
p1506
I1
sS'ts'
p1507
I7
sS'per-subject'
p1508
I1
sS'to'
p1509
I4028
sS'tail'
p1510
I1
sS'methamphetamin'
p1511
I1
sS'ti'
p1512
I5
sS'smile'
p1513
I2
sS'td'
p1514
I15
sS'te'
p1515
I1
sS'caudal-ac'
p1516
I3
sS'norm'
p1517
I1
sS'ra'
p1518
I3
sS'sequential-lett'
p1519
I2
sS'poststimulus'
p1520
I2
sS'normalis'
p1521
I1
sS'single-dos'
p1522
I1
sS'fals'
p1523
I6
sS'util'
p1524
I19
sS'rl'
p1525
I1
sS'candid'
p1526
I5
sS'quantifi'
p1527
I7
sS'bottleneck'
p1528
I1
sS'condition'
p1529
I1
sS'unalt'
p1530
I1
sS'dampen'
p1531
I1
sS'nonimag'
p1532
I1
sS'colleagu'
p1533
I2
sS'pbd'
p1534
I3
sS'adjust'
p1535
I16
sS'small'
p1536
I24
sS'kemper'
p1537
I1
sS'task-depend'
p1538
I7
sS'mentalist'
p1539
I1
sS'glioma'
p1540
I1
sS'disgustand'
p1541
I1
sS'endophenotyp'
p1542
I5
sS'past'
p1543
I9
sS'beta'
p1544
I1
sS'further'
p1545
I84
sS'suboptim'
p1546
I2
sS'mouse-click'
p1547
I2
sS'self-perspect'
p1548
I1
sS'excit'
p1549
I3
sS'richard'
p1550
I1
sS'parieto-occipit'
p1551
I1
sS'section'
p1552
I2
sS'disorgan'
p1553
I5
sS'abl'
p1554
I16
sS'intra-class'
p1555
I2
sS'problem-specif'
p1556
I2
sS'stimulus-punish'
p1557
I1
sS'method'
p1558
I39
sS'disconfirm'
p1559
I1
sS'movement'
p1560
I46
sS'full'
p1561
I6
sS'sentient'
p1562
I1
sS'variat'
p1563
I20
sS'sophist'
p1564
I1
sS'inher'
p1565
I4
sS'lateral-posterior'
p1566
I1
sS'valu'
p1567
I165
sS'search'
p1568
I17
sS'subdomin'
p1569
I1
sS'sensory-funct'
p1570
I1
sS'push-pul'
p1571
I1
sS'fwe'
p1572
I2
sS'un-prim'
p1573
I1
sS'prior'
p1574
I43
sS'therapeut'
p1575
I7
sS'social'
p1576
I194
sS'action'
p1577
I128
sS'narrow'
p1578
I3
sS'quotient'
p1579
I4
sS'via'
p1580
I27
sS'depart'
p1581
I3
sS'declin'
p1582
I3
sS'primit'
p1583
I2
sS'transit'
p1584
I9
sS'vii'
p1585
I2
sS'hydrochlorid'
p1586
I2
sS'receptive-field'
p1587
I1
sS'grafman'
p1588
I1
sS'inappropri'
p1589
I3
sS'taskand'
p1590
I1
sS'unbias'
p1591
I1
sS'decrement'
p1592
I3
sS'establish'
p1593
I38
sS'kircher'
p1594
I2
sS'select'
p1595
I153
sS'bode'
p1596
I1
sS'eye'
p1597
I23
sS'distinct'
p1598
I152
sS'yttrium-aluminium-gran'
p1599
I2
sS'regist'
p1600
I2
sS'two'
p1601
I331
sS'post-traumat'
p1602
I1
sS'approach-rel'
p1603
I1
sS'orbito-front'
p1604
I4
sS'more'
p1605
I339
sS'teen'
p1606
I5
sS'desir'
p1607
I12
sS'yokoyama'
p1608
I2
sS'particular'
p1609
I84
sS'neurosci'
p1610
I16
sS'oxytocin'
p1611
I1
sS'nineteen'
p1612
I6
sS'iq-match'
p1613
I3
sS'none'
p1614
I3
sS'endpoint'
p1615
I1
sS'hour'
p1616
I5
sS'underw'
p1617
I56
sS'gyrusi'
p1618
I1
sS'magnif'
p1619
I1
sS'remain'
p1620
I67
sS'learn'
p1621
I193
sS'male'
p1622
I91
sS'neuro-anatom'
p1623
I1
sS'dopamine-depend'
p1624
I1
sS'explod'
p1625
I1
sS'function-ar'
p1626
I1
sS'prompt'
p1627
I3
sS'scan'
p1628
I201
sS'challeng'
p1629
I16
sS'registr'
p1630
I2
sS'parecoxib'
p1631
I2
sS'accept'
p1632
I5
sS'context-depend'
p1633
I6
sS'compart'
p1634
I2
sS'currency-it'
p1635
I1
sS'explor'
p1636
I58
sS'sharp'
p1637
I4
sS'match-to-sampl'
p1638
I2
sS'filter'
p1639
I3
sS'interconnect'
p1640
I5
sS'opercular-premotor'
p1641
I1
sS'lion-tig'
p1642
I1
sS'letter-to-sound'
p1643
I1
sS'low-risk'
p1644
I5
sS'posterior-inferior'
p1645
I1
sS'self-control'
p1646
I9
sS'multi-cent'
p1647
I1
sS'simpl'
p1648
I42
sS'needl'
p1649
I2
sS'n-back'
p1650
I74
sS'wiley'
p1651
I4
sS'variant'
p1652
I4
sS'dysmorph'
p1653
I1
sS'memory-rel'
p1654
I3
sS'plane'
p1655
I3
sS'blood'
p1656
I142
sS'thalamocort'
p1657
I2
sS'varianc'
p1658
I18
sS'associ'
p1659
I690
sS'primipar'
p1660
I1
sS'lipread'
p1661
I8
sS'circumst'
p1662
I5
sS'nonrisk'
p1663
I1
sS'coax'
p1664
I1
sS'transcort'
p1665
I1
sS'multicompon'
p1666
I1
sS'presma'
p1667
I1
sS'imageri'
p1668
I31
sS'cigarett'
p1669
I9
sS'hfa'
p1670
I7
sS'on-task'
p1671
I1
sS'cingulofront'
p1672
I1
sS'periaquaeduct'
p1673
I1
sS'constitu'
p1674
I1
sS'signa'
p1675
I2
sS'co-occurr'
p1676
I5
sS'prelearn'
p1677
I1
sS'word-retriev'
p1678
I2
sS'trade'
p1679
I2
sS'unimod'
p1680
I1
sS'neurodevelopment'
p1681
I3
sS'paper'
p1682
I2
sS'resting-st'
p1683
I1
sS'twenty-two'
p1684
I3
sS'suffer'
p1685
I15
sS'medium-valu'
p1686
I1
sS'sodium'
p1687
I1
sS'language-specif'
p1688
I2
sS'feedback-guid'
p1689
I3
sS'negative-val'
p1690
I4
sS'pcc'
p1691
I17
sS'pca'
p1692
I1
sS'non-congru'
p1693
I1
sS'ncompat'
p1694
I1
sS'empathy-rel'
p1695
I2
sS'post-centr'
p1696
I2
sS'pag'
p1697
I7
sS'lmtg'
p1698
I2
sS'detach'
p1699
I2
sS'band-limit'
p1700
I1
sS'eventu'
p1701
I1
sS'supramod'
p1702
I1
sS'achiev'
p1703
I11
sS'reactiv'
p1704
I51
sS'pre-lingu'
p1705
I1
sS'habitu'
p1706
I26
sS'genom'
p1707
I1
sS'found'
p1708
I271
sS'risperidon'
p1709
I5
sS'valuat'
p1710
I13
sS'subsystem'
p1711
I1
sS'status'
p1712
I10
sS'harm'
p1713
I7
sS'interleav'
p1714
I7
sS'england'
p1715
I1
sS'mental'
p1716
I67
sS'short'
p1717
I17
sS'subsignific'
p1718
I1
sS'hare'
p1719
I3
sS'monoton'
p1720
I3
sS'exhilar'
p1721
I1
sS'idea'
p1722
I9
sS'procedur'
p1723
I19
sS'realli'
p1724
I1
sS'caudate-putamen'
p1725
I1
sS'inter-region'
p1726
I1
sS'connect'
p1727
I114
sS'pain-regulatori'
p1728
I1
sS'nontreatment-seek'
p1729
I1
sS'energi'
p1730
I9
sS'high-n'
p1731
I3
sS'reduct'
p1732
I46
sS'nondomin'
p1733
I3
sS'research'
p1734
I70
sS'bubbl'
p1735
I1
sS'left-lateralis'
p1736
I3
sS'ftd'
p1737
I6
sS'print'
p1738
I3
sS'occurr'
p1739
I8
sS'racc'
p1740
I14
sS'pauciti'
p1741
I1
sS'difficulti'
p1742
I61
sS'belief'
p1743
I11
sS'terminali'
p1744
I1
sS'dissoci'
p1745
I78
sS'pleasant'
p1746
I48
sS'believ'
p1747
I8
sS'companion'
p1748
I2
sS'voxel-bas'
p1749
I2
sS'mouth-mov'
p1750
I3
sS'performance-rel'
p1751
I1
sS'omit'
p1752
I3
sS'lingual'
p1753
I23
sS'brainstem'
p1754
I10
sS'neutral-beverag'
p1755
I1
sS'levels-of-process'
p1756
I3
sS'fronto-polar'
p1757
I1
sS'perman'
p1758
I1
sS'w'
p1759
I8
sS't-test'
p1760
I2
sS'distracter-domain'
p1761
I1
sS'nacc'
p1762
I26
sS'major'
p1763
I71
sS'risk-rel'
p1764
I1
sS'test-phas'
p1765
I1
sS'dtnbp'
p1766
I5
sS'post-treat'
p1767
I5
sS'flow-depend'
p1768
I1
sS'exchang'
p1769
I4
sS'paced-covert'
p1770
I1
sS'reconciliatori'
p1771
I1
sS'number'
p1772
I71
sS'sometim'
p1773
I4
sS'done'
p1774
I1
sS'stabl'
p1775
I14
sS'wager'
p1776
I1
sS'obligatori'
p1777
I2
sS'differ'
p1778
I820
sS'low-calor'
p1779
I2
sS'o-bolus'
p1780
I1
sS'twoand'
p1781
I1
sS'least'
p1782
I25
sS'paint'
p1783
I2
sS'age-and'
p1784
I1
sS'simplif'
p1785
I1
sS'twenti'
p1786
I8
sS'overact'
p1787
I4
sS'relationship'
p1788
I71
sS'sex-'
p1789
I1
sS'audioand'
p1790
I2
sS'part'
p1791
I101
sS'pars'
p1792
I1
sS'corpus'
p1793
I2
sS'jump'
p1794
I2
sS'b'
p1795
I26
sS'contrari'
p1796
I5
sS'vocal'
p1797
I15
sS'horizont'
p1798
I3
sS'youth'
p1799
I6
sS'inferolater'
p1800
I6
sS'stressor'
p1801
I2
sS'anhedon'
p1802
I1
sS'arrang'
p1803
I3
sS'vl-pfc'
p1804
I2
sS'fixat'
p1805
I25
sS'comput'
p1806
I38
sS'bho'
p1807
I3
sS'time-cours'
p1808
I1
sS'defect'
p1809
I7
sS'left-handed'
p1810
I1
sS'people--i'
p1811
I1
sS'reapprais'
p1812
I11
sS'sensorimotor'
p1813
I17
sS'sell'
p1814
I4
sS'metabol'
p1815
I3
sS'equival'
p1816
I17
sS'self-injuri'
p1817
I4
sS'self'
p1818
I54
sS'onset'
p1819
I24
sS'also'
p1820
I300
sS'endogen'
p1821
I5
sS'build'
p1822
I9
sS'control-fac'
p1823
I1
sS'analogu'
p1824
I7
sS'fluency-rel'
p1825
I1
sS'attend-hous'
p1826
I2
sS'play'
p1827
I65
sS'distribut'
p1828
I77
sS'most'
p1829
I104
sS'paralimb'
p1830
I12
sS'plan'
p1831
I26
sS'plac'
p1832
I2
sS'model'
p1833
I110
sS'amgydala'
p1834
I1
sS'demand'
p1835
I92
sS'kg'
p1836
I8
sS'pain-intensity-encod'
p1837
I1
sS'cover'
p1838
I3
sS'tpj'
p1839
I2
sS'sensory-discrimin'
p1840
I8
sS'post-synapt'
p1841
I1
sS'abnorm'
p1842
I145
sS'exp'
p1843
I2
sS'weigh'
p1844
I2
sS'noun-verb'
p1845
I4
sS'zusan'
p1846
I1
sS'sector'
p1847
I3
sS'gold'
p1848
I1
sS'alphanumer'
p1849
I2
sS'letterstr'
p1850
I1
sS'session'
p1851
I38
sS'reput'
p1852
I2
sS'find'
p1853
I348
sS'syllabogram'
p1854
I1
sS'impact'
p1855
I27
sS'neurophysiolog'
p1856
I11
sS'electrostimul'
p1857
I1
sS'unattend'
p1858
I7
sS'euthym'
p1859
I22
sS'solut'
p1860
I14
sS'gambler'
p1861
I7
sS'weighted-mean'
p1862
I2
sS'factor'
p1863
I60
sS'chocolate-rel'
p1864
I1
sS'remedi'
p1865
I3
sS'bds'
p1866
I1
sS'intrahemispher'
p1867
I1
sS'express'
p1868
I279
sS'mainten'
p1869
I30
sS'bimanu'
p1870
I1
sS'gender-match'
p1871
I4
sS'crt'
p1872
I3
sS'hyperfunct'
p1873
I1
sS'rfx'
p1874
I1
sS'acut'
p1875
I46
sS'system-level'
p1876
I1
sS'caramel'
p1877
I1
sS'alpfc'
p1878
I5
sS'bilingu'
p1879
I24
sS'cri'
p1880
I1
sS'rfo'
p1881
I5
sS'multiplex'
p1882
I2
sS'cinguli'
p1883
I1
sS'c-fibr'
p1884
I2
sS'symptomat'
p1885
I8
sS'aspect'
p1886
I61
sS'coordinate-referenc'
p1887
I2
sS'overwhelm'
p1888
I2
sS'decompos'
p1889
I1
sS'sex'
p1890
I26
sS'celebr'
p1891
I3
sS'sef'
p1892
I2
sS'see'
p1893
I6
sS'sec'
p1894
I6
sS'quasi-realist'
p1895
I1
sS'tender'
p1896
I1
sS'potenc'
p1897
I2
sS'contour'
p1898
I1
sS'analog'
p1899
I14
sS'rmdd'
p1900
I4
sS'auditory-perceptu'
p1901
I1
sS'expert'
p1902
I9
sS'fluvoxamin'
p1903
I5
sS'heat-rel'
p1904
I1
sS'ventral-ba'
p1905
I1
sS'debat'
p1906
I9
sS'disease-modifi'
p1907
I1
sS'experi'
p1908
I268
sS'bulimia'
p1909
I3
sS'spanish-english'
p1910
I1
sS'altern'
p1911
I66
sS'signatur'
p1912
I2
sS'hippocampus'
p1913
I70
sS'appreci'
p1914
I6
sS'positron-emiss'
p1915
I3
sS'error-rel'
p1916
I2
sS'outpati'
p1917
I6
sS'complement'
p1918
I4
sS'subject'
p1919
I1003
sS'incident'
p1920
I21
sS'binaur'
p1921
I1
sS'complementari'
p1922
I2
sS'popul'
p1923
I17
sS'bodi'
p1924
I33
sS'lass'
p1925
I3
sS'last'
p1926
I7
sS'somatomotor'
p1927
I2
sS'task-correl'
p1928
I1
sS'reference-independ'
p1929
I1
sS'annual'
p1930
I1
sS'pds'
p1931
I3
sS'tempor'
p1932
I469
sS'object-happi'
p1933
I1
sS'hayl'
p1934
I1
sS'long-term'
p1935
I26
sS'word-lik'
p1936
I2
sS'whole'
p1937
I19
sS'non-anxi'
p1938
I2
sS'load'
p1939
I84
sS'dietari'
p1940
I1
sS'episod'
p1941
I84
sS'point'
p1942
I18
sS'instanti'
p1943
I5
sS'schedul'
p1944
I1
sS'hypofront'
p1945
I8
sS'newborn'
p1946
I1
sS'hyperact'
p1947
I14
sS'pollici'
p1948
I1
sS'provok'
p1949
I5
sS'more-riski'
p1950
I1
sS'esophagus'
p1951
I1
sS'throughout'
p1952
I18
sS'provoc'
p1953
I7
sS'communiti'
p1954
I2
sS'voxel-wis'
p1955
I2
sS'identif'
p1956
I25
sS'own-fac'
p1957
I2
sS'becom'
p1958
I17
sS'pneumat'
p1959
I1
sS'perpetu'
p1960
I1
sS'sinc'
p1961
I12
sS'non-self'
p1962
I1
sS'secret'
p1963
I1
sS'amnesia'
p1964
I2
sS'ireland'
p1965
I2
sS'unambigu'
p1966
I2
sS'homosexu'
p1967
I6
sS'devis'
p1968
I2
sS'firm'
p1969
I1
sS'top-down'
p1970
I22
sS'fire'
p1971
I3
sS'reversal-learn'
p1972
I1
sS'appli'
p1973
I55
sS'remark'
p1974
I5
sS'high-valu'
p1975
I1
sS'mine'
p1976
I2
sS'understand'
p1977
I88
sS'baron-cohen'
p1978
I1
sS'repetit'
p1979
I48
sS'educ'
p1980
I11
sS'self-fac'
p1981
I8
sS'-was'
p1982
I1
sS'mid-anterior'
p1983
I1
sS'cyclooxygenas'
p1984
I1
sS'sequential-pictur'
p1985
I1
sS'durat'
p1986
I27
sS'cluster'
p1987
I25
sS'pre-sma'
p1988
I16
sS'error'
p1989
I105
sS'anonym'
p1990
I2
sS'coactiv'
p1991
I3
sS'phylogenet'
p1992
I1
sS'real'
p1993
I19
sS'centr'
p1994
I1
sS'voo'
p1995
I1
sS'voi'
p1996
I4
sS'itself'
p1997
I9
sS'magnetoencephalographi'
p1998
I2
sS'virtu'
p1999
I1
sS'chase'
p2000
I1
sS'irrelev'
p2001
I5
sS'ingrain'
p2002
I1
sS'shorten'
p2003
I1
sS'butcher'
p2004
I1
sS'wherein'
p2005
I2
sS'shorter'
p2006
I1
sS'material-select'
p2007
I1
sS'decod'
p2008
I5
sS'interhemispher'
p2009
I1
sS'buy-it'
p2010
I1
sS'anatom'
p2011
I42
sS'day'
p2012
I24
sS'basolater'
p2013
I1
sS'tower'
p2014
I3
sS'snail'
p2015
I2
sS'mood-depend'
p2016
I1
sS'weight-rel'
p2017
I1
sS'ventral-dors'
p2018
I2
sS'alert'
p2019
I6
sS'moment'
p2020
I1
sS'noncognit'
p2021
I1
sS'typic'
p2022
I61
sS'focal'
p2023
I10
sS'recent'
p2024
I88
sS'other-judg'
p2025
I1
sS'amph'
p2026
I3
sS'task'
p2027
I1269
sS'eleg'
p2028
I1
sS'globus'
p2029
I3
sS'entri'
p2030
I1
sS'counter-balanc'
p2031
I1
sS'spent'
p2032
I1
sS'person'
p2033
I84
sS'expens'
p2034
I3
sS'elev'
p2035
I13
sS'landmark'
p2036
I1
sS'academ'
p2037
I29
sS'deafferent'
p2038
I1
sS'spend'
p2039
I2
sS'stem'
p2040
I11
sS'explan'
p2041
I10
sS'brodman'
p2042
I1
sS'buchanan'
p2043
I1
sS'bilater'
p2044
I292
sS'obscur'
p2045
I1
sS'shape'
p2046
I25
sS'osteoarthr'
p2047
I1
sS'mood-congru'
p2048
I3
sS'minimal-phras'
p2049
I1
sS'depriv'
p2050
I7
sS'tegmentum'
p2051
I2
sS'self-apprais'
p2052
I3
sS'fentanyl'
p2053
I8
sS'emotion-regulatori'
p2054
I1
sS'stabilis'
p2055
I1
sS'cue'
p2056
I171
sS'pst'
p2057
I1
sS'within-group'
p2058
I4
sS'input'
p2059
I32
sS'unlik'
p2060
I16
sS'prescan'
p2061
I2
sS'-back'
p2062
I92
sS'free-oper'
p2063
I1
sS'inconsequenti'
p2064
I1
sS'format'
p2065
I21
sS'stateand'
p2066
I1
sS'intuit'
p2067
I9
sS'regions--left'
p2068
I1
sS'judgement'
p2069
I15
sS'blackjack'
p2070
I2
sS'psychosoci'
p2071
I2
sS'material-specif'
p2072
I2
sS'formal'
p2073
I5
sS'd'
p2074
I37
sS'non-pain'
p2075
I16
sS'volumes-of-interest'
p2076
I1
sS'rehabilit'
p2077
I4
sS'warm-discrimin'
p2078
I1
sS'extravers'
p2079
I4
sS'consensus'
p2080
I2
sS'flux'
p2081
I1
sS'princip'
p2082
I7
sS'lenticular'
p2083
I3
sS'cogn'
p2084
I1
sS'beamform'
p2085
I1
sS'rheumatoid'
p2086
I1
sS'voluntarili'
p2087
I2
sS'encount'
p2088
I5
sS'often'
p2089
I40
sS'in-the-mo'
p2090
I1
sS'acknowledg'
p2091
I1
sS'back'
p2092
I12
sS'electroencephalogram'
p2093
I1
sS'strongest'
p2094
I7
sS'sampl'
p2095
I37
sS'sight'
p2096
I4
sS'-independ'
p2097
I1
sS'within-subject'
p2098
I5
sS'affective-motiv'
p2099
I3
sS'scale'
p2100
I30
sS'perigenu'
p2101
I13
sS'pet'
p2102
I123
sS'decision'
p2103
I1
sS'per'
p2104
I17
sS'pes'
p2105
I1
sS'recognit'
p2106
I162
sS'dense-array'
p2107
I1
sS'event-rel'
p2108
I128
sS'larg'
p2109
I62
sS'scalp'
p2110
I5
sS'carpent'
p2111
I1
sS'novelti'
p2112
I21
sS'recogniz'
p2113
I1
sS'machin'
p2114
I4
sS'be'
p2115
I544
sS'patient'
p2116
I734
sS'ba'
p2117
I188
sS'odor'
p2118
I1
sS'agreement'
p2119
I7
sS'peri-sylvian'
p2120
I2
sS'weight-loss'
p2121
I2
sS'bp'
p2122
I5
sS'prerequisit'
p2123
I2
sS'bs'
p2124
I4
sS'from'
p2125
I431
sS'biomark'
p2126
I10
sS'by'
p2127
I847
sS'rtng'
p2128
I4
sS'elucid'
p2129
I14
sS'constraint'
p2130
I12
sS'quasi-random'
p2131
I1
sS'materi'
p2132
I19
sS'matern'
p2133
I10
sS'electrophysiolog'
p2134
I8
sS'stuart'
p2135
I1
sS'pertin'
p2136
I1
sS'elscint'
p2137
I1
sS'semistructur'
p2138
I1
sS'anterior'
p2139
I474
sS'primarili'
p2140
I22
sS'irrit'
p2141
I1
sS'into'
p2142
I56
sS'nsc'
p2143
I2
sS'likabl'
p2144
I1
sS'locus'
p2145
I5
sS'emotion-imit'
p2146
I1
sS'contributor'
p2147
I1
sS'updat'
p2148
I14
sS'response-reward'
p2149
I3
sS'durabl'
p2150
I3
sS'task-typ'
p2151
I2
sS'inclus'
p2152
I1
sS'seger'
p2153
I1
sS'span'
p2154
I6
sS'includ'
p2155
I235
sS'suit'
p2156
I4
sS'forward'
p2157
I1
sS'self-focus'
p2158
I4
sS'implaus'
p2159
I1
sS'neuropatholog'
p2160
I8
sS'reorgan'
p2161
I9
sS'amodio'
p2162
I1
sS'mcclure'
p2163
I1
sS'link'
p2164
I52
sS'interlock'
p2165
I1
sS'line'
p2166
I22
sS'mitig'
p2167
I1
sS'temporo-pariet'
p2168
I10
sS'kahler'
p2169
I1
sS'anomal'
p2170
I3
sS'error-awar'
p2171
I1
sS'spectroscopi'
p2172
I1
sS'structure-funct'
p2173
I1
sS'left-inferior-tempor'
p2174
I2
sS'uv'
p2175
I1
sS'up'
p2176
I9
sS'us'
p2177
I18
sS'hardand'
p2178
I1
sS'intim'
p2179
I3
sS'uk'
p2180
I2
sS'compuls'
p2181
I2
sS'uncondit'
p2182
I2
sS'curv'
p2183
I3
sS'nontarget'
p2184
I1
sS'constant'
p2185
I15
sS'lesion-behavior'
p2186
I1
sS'metacognit'
p2187
I2
sS'utilis'
p2188
I1
sS'fluenci'
p2189
I85
sS'hyperattent'
p2190
I1
sS'occipito-pariet'
p2191
I2
sS'doe'
p2192
I32
sS'prevail'
p2193
I2
sS'low-calori'
p2194
I4
sS'overfeed'
p2195
I4
sS'intact'
p2196
I18
sS'paradox'
p2197
I1
sS'reward-system'
p2198
I2
sS'microgram'
p2199
I1
sS'amnest'
p2200
I4
sS'nigra'
p2201
I4
sS'leftward'
p2202
I1
sS'invalid'
p2203
I2
sS'nigrostriat'
p2204
I1
sS'priori'
p2205
I6
sS'asymmetr'
p2206
I2
sS'papl'
p2207
I1
sS'lend'
p2208
I5
sS'unpaced-overt'
p2209
I1
sS'prepared'
p2210
I1
sS'propag'
p2211
I1
sS'pain-direct'
p2212
I1
sS'r-ocft'
p2213
I2
sS'inferio-medi'
p2214
I1
sS'phrase-word'
p2215
I1
sS'less-riski'
p2216
I1
sS'unaffect'
p2217
I9
sS'face-hous'
p2218
I1
sS'midfront'
p2219
I3
sS'psychiatri'
p2220
I11
sS'age'
p2221
I119
sS'pseudofont'
p2222
I1
sS'discrimin'
p2223
I73
sS'nh-respons'
p2224
I2
sS'dot'
p2225
I6
sS'gender-ratio'
p2226
I1
sS'nonliter'
p2227
I5
sS'german-speak'
p2228
I1
sS'code'
p2229
I47
sS'partial'
p2230
I24
sS'oral'
p2231
I7
sS'hint'
p2232
I2
sS'nonthreaten'
p2233
I2
sS'pre-quit'
p2234
I1
sS'maastricht'
p2235
I1
sS'legal'
p2236
I5
sS'broader'
p2237
I3
sS'bromocriptin'
p2238
I2
sS'one-half'
p2239
I1
sS'ev-'
p2240
I1
sS'pallidostriatum'
p2241
I1
sS'sensit'
p2242
I93
sS'harvest'
p2243
I1
sS'elsewher'
p2244
I5
sS'young'
p2245
I24
sS'face-process'
p2246
I5
sS'becam'
p2247
I6
sS'late'
p2248
I23
sS'atlas'
p2249
I1
sS'sens'
p2250
I3
sS'fatal'
p2251
I1
sS'passiv'
p2252
I61
sS'deactiv'
p2253
I38
sS'symptom-bas'
p2254
I1
sS'assay'
p2255
I2
sS'disclos'
p2256
I2
sS'sureti'
p2257
I1
sS'rhyme'
p2258
I12
sS'voxel-by-voxel'
p2259
I3
sS'whole-brain'
p2260
I12
sS'volum'
p2261
I28
sS'aprepit'
p2262
I3
sS'surgeon'
p2263
I3
sS'self-detect'
p2264
I1
sS'norepinephrin'
p2265
I1
sS'tri'
p2266
I3
sS'level-depend'
p2267
I37
sS'steady-st'
p2268
I2
sS'mirror-neuron'
p2269
I1
sS'drug-rel'
p2270
I2
sS'knight'
p2271
I1
sS'inclin'
p2272
I1
sS'fewer'
p2273
I5
sS'anxious'
p2274
I1
sS'bookheim'
p2275
I1
sS'race'
p2276
I2
sS'item-specif'
p2277
I6
sS'marri'
p2278
I1
sS'scalp-record'
p2279
I1
sS'dimer'
p2280
I1
sS'vehicl'
p2281
I1
sS'impli'
p2282
I11
sS'fortun'
p2283
I4
sS'natur'
p2284
I40
sS'maintain'
p2285
I34
sS'hyde'
p2286
I1
sS'trial-by-tri'
p2287
I2
sS'index'
p2288
I19
sS'non-invas'
p2289
I4
sS'resembl'
p2290
I5
sS'time-link'
p2291
I1
sS'access'
p2292
I21
sS'impuls'
p2293
I18
sS'troyer'
p2294
I1
sS'non-linear'
p2295
I6
sS'led'
p2296
I24
sS'lee'
p2297
I1
sS'limbic-prefront'
p2298
I1
sS'leg'
p2299
I1
sS'lep'
p2300
I2
sS'wh-question'
p2301
I1
sS'extrastri'
p2302
I34
sS'mid-ventrolater'
p2303
I5
sS'vertic'
p2304
I2
sS'fifteen'
p2305
I9
sS'implicit'
p2306
I41
sS'acquir'
p2307
I53
sS'great'
p2308
I9
sS'uv-b'
p2309
I1
sS'temporal-pariet'
p2310
I1
sS'conceiv'
p2311
I1
sS'technolog'
p2312
I4
sS'self-refer'
p2313
I3
sS'survey'
p2314
I1
sS'insulin'
p2315
I1
sS'opinion'
p2316
I1
sS'implement'
p2317
I22
sS'genotype-by-diagnosis-by-face-emot'
p2318
I1
sS'maker'
p2319
I1
sS'first-tim'
p2320
I2
sS'twenty-six'
p2321
I2
sS'posttraumat'
p2322
I8
sS'causat'
p2323
I1
sS'emot'
p2324
I757
sS'foundat'
p2325
I1
sS'amygdala-medi'
p2326
I3
sS'sugar'
p2327
I1
sS'causal'
p2328
I8
sS'bingen'
p2329
I2
sS'doubl'
p2330
I8
sS're-activ'
p2331
I1
sS'next'
p2332
I8
sS'eleven'
p2333
I8
sS'doubt'
p2334
I1
sS'consonant-vowel'
p2335
I1
sS'personality-trait'
p2336
I2
sS'hypometabol'
p2337
I1
sS'med-ofc'
p2338
I2
sS'pfc'
p2339
I101
sS'sharpli'
p2340
I1
sS'action-ori'
p2341
I1
sS'medication-na'
p2342
I4
sS'trait'
p2343
I38
sS'self-inflict'
p2344
I1
sS'chariti'
p2345
I1
sS'train'
p2346
I12
sS'pavlovian-predict'
p2347
I2
sS'ok'
p2348
I2
sS'gambl'
p2349
I47
sS'iii'
p2350
I9
sS'amygdala'
p2351
I405
sS'bodili'
p2352
I5
sS'reproduct'
p2353
I3
sS'account'
p2354
I52
sS'ventraland'
p2355
I1
sS'cortico-limb'
p2356
I4
sS'binge-'
p2357
I1
sS'f'
p2358
I9
sS'this'
p2359
I772
sS'low-prob'
p2360
I1
sS'cambridg'
p2361
I1
sS'left-domin'
p2362
I1
sS'basotempor'
p2363
I1
sS'obvious'
p2364
I3
sS'thin'
p2365
I2
sS'drill'
p2366
I1
sS'of'
p2367
I6531
sS'cortical-subcort'
p2368
I1
sS'weaker'
p2369
I3
sS'contempl'
p2370
I1
sS'somatotopi'
p2371
I3
sS'process'
p2372
I1086
sS'loci'
p2373
I4
sS'anxiolyt'
p2374
I1
sS'high'
p2375
I158
sS'oa'
p2376
I6
sS'onlin'
p2377
I5
sS'schemat'
p2378
I5
sS'adolesc'
p2379
I71
sS'crimin'
p2380
I4
sS'well-b'
p2381
I2
sS'serial'
p2382
I10
sS'contempt'
p2383
I9
sS'original-data'
p2384
I1
sS'surfac'
p2385
I8
sS'miyamoto'
p2386
I1
sS'delay'
p2387
I75
sS'pair'
p2388
I73
sS'early-acquisit'
p2389
I1
sS'time-lock'
p2390
I1
sS'weaken'
p2391
I1
sS'afp'
p2392
I2
sS'hyperfront'
p2393
I1
sS'stock'
p2394
I2
sS'likewis'
p2395
I1
sS'category-judg'
p2396
I1
sS'y'
p2397
I6
sS'singular'
p2398
I2
sS'electro-acupunctur'
p2399
I3
sS'await'
p2400
I2
sS'neuroanatom'
p2401
I19
sS'noned'
p2402
I1
sS'redund'
p2403
I5
sS'ceil'
p2404
I4
sS'nps'
p2405
I1
sS'alloc'
p2406
I2
sS'essenti'
p2407
I18
sS'psychophys'
p2408
I15
sS'bind'
p2409
I6
sS'bulim'
p2410
I1
sS'correspond'
p2411
I53
sS'pcun'
p2412
I2
sS'element'
p2413
I4
sS'issu'
p2414
I22
sS'diencephalon'
p2415
I2
sS'allow'
p2416
I36
sS'hippocampus-later'
p2417
I1
sS'leptin-sensit'
p2418
I1
sS'six'
p2419
I49
sS'nonspati'
p2420
I7
sS'movi'
p2421
I3
sS'alon'
p2422
I9
sS'trial-to-tri'
p2423
I2
sS'move'
p2424
I16
sS'imperson'
p2425
I1
sS'non-treatment-seek'
p2426
I1
sS'evolutionari'
p2427
I4
sS'non-smok'
p2428
I7
sS'neurotic'
p2429
I7
sS'thyself'
p2430
I1
sS'trial-specif'
p2431
I3
sS'perfect'
p2432
I1
sS'stimulus-outcom'
p2433
I2
sS'ld'
p2434
I3
sS'decay'
p2435
I2
sS'chosen'
p2436
I9
sS'hobbi'
p2437
I1
sS'lh'
p2438
I6
sS'li'
p2439
I2
sS'lv'
p2440
I2
sS'mellitus'
p2441
I2
sS'lt'
p2442
I47
sS'willing'
p2443
I1
sS'oropharynx'
p2444
I1
sS'lp'
p2445
I1
sS'wms-r'
p2446
I2
sS'therefor'
p2447
I53
sS'preval'
p2448
I6
sS'dorsolater'
p2449
I156
sS'junction'
p2450
I23
sS'greater'
p2451
I297
sS'hedon'
p2452
I9
sS'button-press'
p2453
I2
sS'overal'
p2454
I38
sS'strateg'
p2455
I9
sS'topospecif'
p2456
I1
sS'mention'
p2457
I1
sS'snake'
p2458
I1
sS'neurofunct'
p2459
I5
sS'functional-anatom'
p2460
I1
sS'realize'
p2461
I2
sS'neuropsychologia'
p2462
I3
sS'hemispherectomi'
p2463
I2
sS'oculographi'
p2464
I1
sS'sub-circuit'
p2465
I1
sS'affect-appropri'
p2466
I2
sS'mnemon'
p2467
I8
sS'interlaboratori'
p2468
I1
sS'post-strok'
p2469
I1
sS'tracer'
p2470
I1
sS'subset'
p2471
I11
sS'societi'
p2472
I16
sS'bpes'
p2473
I1
sS'intellig'
p2474
I14
sS'static'
p2475
I7
sS'thirteen'
p2476
I5
sS'lfs'
p2477
I10
sS'fluctuat'
p2478
I3
sS'color-word'
p2479
I2
sS'huntington'
p2480
I2
sS'bay'
p2481
I3
sS'non-proposit'
p2482
I1
sS'drug-seek'
p2483
I1
sS'dapretto'
p2484
I1
sS'variabl'
p2485
I67
sS'mediodors'
p2486
I1
sS'mid-'
p2487
I2
sS'matrix'
p2488
I16
sS'twice'
p2489
I12
sS'disentangl'
p2490
I5
sS'defend'
p2491
I1
sS'wrist'
p2492
I2
sS'facto'
p2493
I1
sS'posteriori'
p2494
I1
sS'alcohol-rel'
p2495
I2
sS'rel'
p2496
I5
sS'determin'
p2497
I94
sS'defens'
p2498
I5
sS'matric'
p2499
I1
sS'clarifi'
p2500
I19
sS'harold'
p2501
I1
sS'insid'
p2502
I5
sS'regulatori'
p2503
I9
sS'self-knowledg'
p2504
I1
sS'egoist'
p2505
I1
sS'tempo'
p2506
I1
sS'own-inf'
p2507
I1
sS'logograph'
p2508
I7
sS'efnback'
p2509
I1
sS'fourteen'
p2510
I10
sS'fear-induc'
p2511
I3
sS'unipolar'
p2512
I15
sS'one-back'
p2513
I6
sS'disintegr'
p2514
I1
sS'fetal'
p2515
I1
sS'invas'
p2516
I1
sS'likelihood'
p2517
I11
sS'afterward'
p2518
I1
sS'sparser'
p2519
I1
sS're-shift'
p2520
I1
sS'spill'
p2521
I2
sS'could'
p2522
I65
sS'pre-front'
p2523
I3
sS'length'
p2524
I3
sS'outsid'
p2525
I9
sS'inter-individu'
p2526
I5
sS'retain'
p2527
I2
sS'softwar'
p2528
I4
sS'suffix'
p2529
I4
sS'attenu'
p2530
I43
sS'scene'
p2531
I11
sS'strategi'
p2532
I71
sS'pain-specif'
p2533
I2
sS'extrageniculostri'
p2534
I1
sS'three-way'
p2535
I1
sS'suffic'
p2536
I1
sS'subcorticocort'
p2537
I1
sS'two-'
p2538
I1
sS'unfavour'
p2539
I1
sS'los'
p2540
I1
sS'system'
p2541
I276
sS'hyperton'
p2542
I2
sS'physic'
p2543
I24
sS'scant'
p2544
I2
sS'termin'
p2545
I1
sS'assort'
p2546
I1
sS'left-later'
p2547
I5
sS'stomach'
p2548
I1
sS're-interpret'
p2549
I1
sS'viscerosensit'
p2550
I1
sS'parieto-front'
p2551
I1
sS'withdrawal-induc'
p2552
I1
sS'accompani'
p2553
I20
sS'too'
p2554
I4
sS'udd'
p2555
I9
sS'nobodi'
p2556
I1
sS'sma-prop'
p2557
I2
sS'later-'
p2558
I1
sS'bonferroni'
p2559
I1
sS'morph'
p2560
I4
sS'embodi'
p2561
I1
sS'disease-depend'
p2562
I1
sS'amphetamin'
p2563
I4
sS'structur'
p2564
I152
sS'charact'
p2565
I26
sS'neurocognit'
p2566
I9
sS'social-cognit'
p2567
I3
sS'congenit'
p2568
I1
sS'psycholog'
p2569
I21
sS'middle-tempor'
p2570
I1
sS'bing'
p2571
I1
sS'viewer'
p2572
I3
sS'within-particip'
p2573
I2
sS'neurocircuit'
p2574
I3
sS'recognition-rel'
p2575
I1
sS'tempera'
p2576
I1
sS'have'
p2577
I395
sS'consummatori'
p2578
I2
sS'reward-depend'
p2579
I1
sS'depict'
p2580
I9
sS'mil'
p2581
I1
sS'min'
p2582
I16
sS'two-compon'
p2583
I1
sS'mid'
p2584
I5
sS'accuraci'
p2585
I40
sS'mix'
p2586
I10
sS'discret'
p2587
I17
sS'discrep'
p2588
I4
sS'first-person'
p2589
I3
sS'korean'
p2590
I5
sS'phenotyp'
p2591
I4
sS'mit'
p2592
I1
sS'uppercas'
p2593
I1
sS'aphas'
p2594
I12
sS'preliminari'
p2595
I13
sS'mimick'
p2596
I1
sS'brain-damag'
p2597
I3
sS'sfs'
p2598
I2
sS'withdrawal-rel'
p2599
I1
sS'print-medi'
p2600
I1
sS'eight'
p2601
I32
sS'threat-rel'
p2602
I7
sS'sfg'
p2603
I2
sS'segment'
p2604
I7
sS'payment'
p2605
I1
sS'dorsal'
p2606
I137
sS'homogen'
p2607
I2
sS'mr-compat'
p2608
I1
sS'autoregress'
p2609
I1
sS'placement'
p2610
I2
sS'frontal-pariet'
p2611
I2
sS'instig'
p2612
I1
sS'gather'
p2613
I3
sS'stronger'
p2614
I54
sS'offspr'
p2615
I1
sS'five-point'
p2616
I1
sS'univari'
p2617
I4
sS'face-'
p2618
I1
sS'occasion'
p2619
I4
sS'opercular'
p2620
I7
sS'prepot'
p2621
I2
sS'nutrit'
p2622
I1
sS'time-depend'
p2623
I2
sS'highand'
p2624
I3
sS'text'
p2625
I9
sS'borderlin'
p2626
I16
sS'etholog'
p2627
I1
sS'bring'
p2628
I2
sS'empir'
p2629
I3
sS'rough'
p2630
I1
sS'discoveri'
p2631
I2
sS'economist'
p2632
I2
sS'dbt'
p2633
I4
sS'psts'
p2634
I1
sS'under-recruit'
p2635
I1
sS'nois'
p2636
I11
sS'with'
p2637
I2521
sS'uncertainty-rel'
p2638
I1
sS'should'
p2639
I24
sS'prolong'
p2640
I3
sS'gestur'
p2641
I13
sS'proband'
p2642
I1
sS'pstg'
p2643
I1
sS'mesolimbic-front'
p2644
I3
sS'intrigu'
p2645
I2
sS'audiospati'
p2646
I2
sS'jab'
p2647
I1
sS'inferior'
p2648
I385
sS'dorsal-later'
p2649
I1
sS'jackpot'
p2650
I1
sS'insight'
p2651
I32
sS'satisfact'
p2652
I5
sS'lobe'
p2653
I137
sS'inferior-middl'
p2654
I2
sS'disagre'
p2655
I1
sS'bear'
p2656
I2
sS'autom'
p2657
I2
sS'increas'
p2658
I585
sS'antagonist'
p2659
I3
sS'smash'
p2660
I1
sS'three-back'
p2661
I2
sS't-statist'
p2662
I1
sS'magnitude-depend'
p2663
I1
sS'organ'
p2664
I46
sS'ashtray'
p2665
I1
sS'h'
p2666
I39
sS'reward-motiv'
p2667
I1
sS'eyebrow'
p2668
I1
sS'full-miss'
p2669
I1
sS'brainvoyag'
p2670
I1
sS'galvan'
p2671
I3
sS'gobbini'
p2672
I1
sS'presupplementari'
p2673
I1
sS'integr'
p2674
I70
sS'electroencephalograph'
p2675
I3
sS'attribut'
p2676
I50
sS'self-elicit'
p2677
I1
sS'ventro-medi'
p2678
I1
sS'pronoun'
p2679
I1
sS'frame'
p2680
I8
sS'respect'
p2681
I62
sS'ocular'
p2682
I2
sS'malfunct'
p2683
I1
sS'temporarili'
p2684
I1
sS'vwfa'
p2685
I8
sS'motion-select'
p2686
I2
sS'polymorph'
p2687
I4
sS'meso-striat'
p2688
I1
sS'moderate-intens'
p2689
I1
sS'prefrontal-subcort'
p2690
I2
sS'pattern'
p2691
I268
sS'boundari'
p2692
I1
sS'misus'
p2693
I1
sS'distractor'
p2694
I3
sS'picture-sent'
p2695
I1
sS'proof'
p2696
I1
sS'frontal-parietal-tempor'
p2697
I1
sS'progress'
p2698
I7
sS'vicari'
p2699
I1
sS'thumbnail'
p2700
I1
sS'non-alexithymia'
p2701
I1
sS'patholog'
p2702
I26
sS'grand-averag'
p2703
I1
sS'dislik'
p2704
I2
sS'multi-slic'
p2705
I1
sS'italian-german'
p2706
I1
sS'mate'
p2707
I1
sS'parahippocampi'
p2708
I1
sS'endo'
p2709
I1
sS'picture-capt'
p2710
I13
sS'thermosens'
p2711
I1
sS'money'
p2712
I34
sS'ramp'
p2713
I1
sS'equal'
p2714
I34
sS'drug'
p2715
I41
sS'etc'
p2716
I4
sS'instanc'
p2717
I1
sS'task-adequ'
p2718
I1
sS'equat'
p2719
I3
sS'tle'
p2720
I5
sS'placebo'
p2721
I55
sS'neuropath'
p2722
I2
sS'comment'
p2723
I2
sS'ssvep'
p2724
I3
sS'co'
p2725
I4
sS'cm'
p2726
I1
sS'cf'
p2727
I3
sS'cd'
p2728
I6
sS'english-speak'
p2729
I1
sS'inflammatori'
p2730
I2
sS'carbon'
p2731
I1
sS'cs'
p2732
I5
sS'cr'
p2733
I6
sS'brevi'
p2734
I1
sS'cp'
p2735
I8
sS'operculo-insular'
p2736
I2
sS'cu'
p2737
I19
sS'compressed-sequ'
p2738
I1
sS'biphas'
p2739
I1
sS'ag'
p2740
I4
sS'gradat'
p2741
I1
sS'anomali'
p2742
I2
sS'farah'
p2743
I1
sS'insuffici'
p2744
I2
sS'ahmanson-lovelac'
p2745
I1
sS'post-exercis'
p2746
I1
sS'gaze'
p2747
I16
sS'electr'
p2748
I23
sS'homophon'
p2749
I6
sS'trajectori'
p2750
I1
sS'immedi'
p2751
I13
sS'intra-individu'
p2752
I2
sS'altruist'
p2753
I1
sS'non-parametr'
p2754
I2
sS'intrapariet'
p2755
I16
sS'upcom'
p2756
I4
sS'protect'
p2757
I1
sS'moreov'
p2758
I49
sS'deliber'
p2759
I3
sS'togeth'
p2760
I35
sS'bull'
p2761
I1
sS'altruism'
p2762
I1
sS'daily-lif'
p2763
I1
sS'lgt'
p2764
I1
sS'laser'
p2765
I21
sS'irregular'
p2766
I6
sS'coeruleus'
p2767
I1
sS'expression-induc'
p2768
I1
sS'undergon'
p2769
I1
sS'rectangular'
p2770
I1
sS'defin'
p2771
I27
sS'homozygot'
p2772
I1
sS'wernicke-broca'
p2773
I1
sS'purchas'
p2774
I6
sS've'
p2775
I2
sS'almost'
p2776
I7
sS'vi'
p2777
I2
sS'generat'
p2778
I155
sS'site'
p2779
I60
sS'take-ov'
p2780
I1
sS'vp'
p2781
I3
sS'vr'
p2782
I2
sS'vs'
p2783
I98
sS'vt'
p2784
I2
sS'against'
p2785
I16
sS'substanti'
p2786
I19
sS'age-specif'
p2787
I1
sS'incom'
p2788
I1
sS'pre-supplementari'
p2789
I6
sS'cohort'
p2790
I10
sS'proport'
p2791
I7
sS'japanes'
p2792
I8
sS'adjoin'
p2793
I1
sS'referenti'
p2794
I2
sS'cope'
p2795
I6
sS'rmtg'
p2796
I1
sS'nonsoci'
p2797
I6
sS'fill'
p2798
I1
sS'raloxifen'
p2799
I15
sS'competit'
p2800
I7
sS'rightor'
p2801
I1
sS'ball'
p2802
I2
sS'denot'
p2803
I3
sS'expans'
p2804
I1
sS'drink'
p2805
I16
sS'upon'
p2806
I29
sS'multisit'
p2807
I2
sS'right-later'
p2808
I1
sS'ernst'
p2809
I2
sS'judgment'
p2810
I89
sS'expand'
p2811
I4
sS'ofc'
p2812
I68
sS'retard'
p2813
I1
sS'off'
p2814
I2
sS'forty-eight'
p2815
I1
sS'neural'
p2816
I721
sS'nevertheless'
p2817
I3
sS'up-regul'
p2818
I2
sS'colour'
p2819
I10
sS'thought'
p2820
I34
sS'non-abstin'
p2821
I4
sS'exampl'
p2822
I6
sS'command'
p2823
I1
sS'dextroamphetamin'
p2824
I1
sS'interpol'
p2825
I1
sS'non-infarct'
p2826
I1
sS'loss'
p2827
I82
sS'facilit'
p2828
I24
sS'between-object'
p2829
I2
sS'paus'
p2830
I9
sS'less'
p2831
I99
sS'frontali'
p2832
I2
sS'well-describ'
p2833
I1
sS'clinic'
p2834
I71
sS'interim'
p2835
I1
sS'-exclus'
p2836
I1
sS'self-administ'
p2837
I2
sS'surpass'
p2838
I1
sS'fear-rel'
p2839
I10
sS'regret-avers'
p2840
I1
sS'systemat'
p2841
I10
sS'demograph'
p2842
I5
sS'dipol'
p2843
I5
sS'svo'
p2844
I1
sS'high-field'
p2845
I4
sS'field'
p2846
I23
sS'nonpain'
p2847
I21
sS'underact'
p2848
I2
sS'material-typ'
p2849
I2
sS'self-imag'
p2850
I3
sS'add'
p2851
I9
sS'valid'
p2852
I19
sS'echoplanar'
p2853
I7
sS'crack'
p2854
I1
sS'ado'
p2855
I1
sS'imbib'
p2856
I1
sS'postpartum'
p2857
I1
sS'contemptu'
p2858
I2
sS'raven'
p2859
I1
sS'devalu'
p2860
I1
sS'nvs'
p2861
I3
sS'nvr'
p2862
I2
sS'nonoverlap'
p2863
I3
sS'spatial'
p2864
I123
sS'piec'
p2865
I2
sS'arguabl'
p2866
I1
sS'fluency-induc'
p2867
I1
sS'five'
p2868
I31
sS'regions--amygdala'
p2869
I1
sS'crus'
p2870
I2
sS'recurr'
p2871
I4
sS'non-adjac'
p2872
I1
sS'insert'
p2873
I2
sS'resid'
p2874
I1
sS'like'
p2875
I69
sS'finnish'
p2876
I1
sS'inferenc'
p2877
I2
sS'reference-depend'
p2878
I1
sS'verb-specif'
p2879
I2
sS'pfcs'
p2880
I1
sS'polit'
p2881
I4
sS'architectur'
p2882
I4
sS'pretest'
p2883
I1
sS'italian'
p2884
I1
sS'opioid'
p2885
I2
sS'non-respond'
p2886
I1
sS'incent'
p2887
I64
sS'captur'
p2888
I5
sS'somatosensori'
p2889
I89
sS'ltg-induc'
p2890
I1
sS'convey'
p2891
I12
sS'convex'
p2892
I1
sS'proper'
p2893
I6
sS'genuin'
p2894
I1
sS'transport'
p2895
I2
sS'registri'
p2896
I1
sS'hypothes'
p2897
I55
sS'habit-bas'
p2898
I1
sS'tms'
p2899
I2
sS'feder'
p2900
I2
sS'avoid'
p2901
I32
sS'preference-rel'
p2902
I1
sS'passion'
p2903
I6
sS'esa'
p2904
I5
sS'sequenc'
p2905
I36
sS'knowledge-cooper'
p2906
I1
sS'regain'
p2907
I1
sS'epithalamus'
p2908
I1
sS'dcm'
p2909
I2
sS'slight'
p2910
I9
sS'imaginari'
p2911
I1
sS'adversari'
p2912
I1
sS'noisi'
p2913
I5
sS'somat'
p2914
I10
sS'although'
p2915
I81
sS'preferenti'
p2916
I24
sS'hypodopaminergia'
p2917
I1
sS'stage'
p2918
I24
sS'marshuetz'
p2919
I1
sS'about'
p2920
I119
sS'slower-develop'
p2921
I1
sS'neurohormon'
p2922
I1
sS'justif'
p2923
I1
sS'ingest'
p2924
I2
sS'first-degre'
p2925
I6
sS'point-light'
p2926
I1
sS'left-sid'
p2927
I5
sS'certainti'
p2928
I1
sS'predictor'
p2929
I8
sS'artefact'
p2930
I1
sS'absolut'
p2931
I2
sS'fluoxetin'
p2932
I4
sS'subject-initi'
p2933
I4
sS'three'
p2934
I129
sS'assess'
p2935
I160
sS'chronic'
p2936
I47
sS'mere'
p2937
I3
sS'merg'
p2938
I1
sS'observe--observ'
p2939
I1
sS'reanalysi'
p2940
I1
sS'rcz'
p2941
I6
sS'pictur'
p2942
I242
sS'assumpt'
p2943
I16
sS'sententi'
p2944
I5
sS'tastant'
p2945
I2
sS'introvers'
p2946
I3
sS'trigger'
p2947
I11
sS'nh-responsive-on'
p2948
I1
sS'yrs'
p2949
I1
sS'bd'
p2950
I46
sS'deliveri'
p2951
I10
sS'buy'
p2952
I5
sS'rectus'
p2953
I1
sS'inferior-later'
p2954
I1
sS'unexpect'
p2955
I4
sS'brand'
p2956
I16
sS'basic'
p2957
I24
sS'-dihydroxy-l-phenylalanin'
p2958
I1
sS'but'
p2959
I385
sS'ftnd'
p2960
I9
sS'grate'
p2961
I3
sS'count'
p2962
I16
sS'real-lif'
p2963
I3
sS'wish'
p2964
I3
sS'pairwise-match'
p2965
I1
sS'j'
p2966
I14
sS'smooth'
p2967
I1
sS'intensity-respons'
p2968
I1
sS'evidenc'
p2969
I4
sS'animaci'
p2970
I1
sS'schizophrenia-rel'
p2971
I1
sS'cigarette-rel'
p2972
I8
sS'otherwis'
p2973
I5
sS'problem'
p2974
I38
sS'free-rang'
p2975
I1
sS'etiolog'
p2976
I2
sS'dure'
p2977
I1077
sS'pig'
p2978
I1
sS'enceph'
p2979
I1
sS'circul'
p2980
I1
sS'our'
p2981
I218
sS'regul'
p2982
I44
sS'autism'
p2983
I121
sS'sub-categori'
p2984
I1
sS'spell'
p2985
I2
sS'category-rel'
p2986
I1
sS'nonetheless'
p2987
I5
sS'sexual'
p2988
I40
sS'wm-load'
p2989
I1
sS'detail'
p2990
I10
sS'virtual'
p2991
I6
sS'trendwis'
p2992
I1
sS'varieti'
p2993
I3
sS'u'
p2994
I3
sS'out'
p2995
I32
sS'francisco'
p2996
I2
sS'under-act'
p2997
I1
sS'noncontigu'
p2998
I1
sS'semin'
p2999
I1
sS'kind--kind'
p3000
I1
sS'degrad'
p3001
I6
sS'peptid'
p3002
I1
sS'two-play'
p3003
I1
sS'kanji'
p3004
I6
sS'rule'
p3005
I14
sS'-min'
p3006
I4
sS'syllabl'
p3007
I4
sS'calcarin'
p3008
I4
sS'amygdal'
p3009
I1
sS'disorders-fourth'
p3010
I1
sS'sadomasochist'
p3011
I2
sS'low-load'
p3012
I1
sS'profici'
p3013
I24
sS'high-reward'
p3014
I4
sS'all'
p3015
I197
sS'sleep'
p3016
I3
sS'nonavers'
p3017
I1
sS'cutan'
p3018
I30
sS'ventral'
p3019
I205
sS'spet'
p3020
I2
sS'hyper-sensit'
p3021
I1
sS'phonolog'
p3022
I97
sS'deviat'
p3023
I11
sS'captioned-pictur'
p3024
I2
sS'food-rel'
p3025
I13
sS'everi'
p3026
I3
sS'risk'
p3027
I163
sS'rise'
p3028
I3
sS'dt-cpt'
p3029
I2
sS'quantif'
p3030
I1
sS'manic'
p3031
I13
sS'mania'
p3032
I14
sS'arous'
p3033
I66
sS'gambling-rel'
p3034
I2
sS'cortico-subcort'
p3035
I1
sS'quantit'
p3036
I8
sS'frontomedian'
p3037
I9
sS'school'
p3038
I2
sS'bn'
p3039
I6
sS'plural'
p3040
I4
sS'subject-specif'
p3041
I1
sS'cma'
p3042
I2
sS'stress-respons'
p3043
I1
sS'blocked-design'
p3044
I1
sS'red'
p3045
I2
sS'valence-bas'
p3046
I1
sS'verif'
p3047
I1
sS'nonschizophrenia'
p3048
I3
sS'servic'
p3049
I2
sS'chew'
p3050
I1
sS'speci'
p3051
I3
sS'hori'
p3052
I1
sS'naiv'
p3053
I2
sS'nonalcohol'
p3054
I3
sS'finger-press'
p3055
I1
sS'phonet'
p3056
I8
sS'consequ'
p3057
I33
sS'phonem'
p3058
I7
sS'event-sequ'
p3059
I1
sS'longstand'
p3060
I1
sS'blue'
p3061
I4
sS'supervis'
p3062
I1
sS'fronto-striatal-limb'
p3063
I1
sS'introspect'
p3064
I2
sS'calcul'
p3065
I13
sS'psvw'
p3066
I4
sS'high-prob'
p3067
I1
sS'bipolar'
p3068
I127
sS'nogo'
p3069
I1
sS'temporal-occipit'
p3070
I1
sS'conduct'
p3071
I46
sS'subsyndrom'
p3072
I4
sS'cystein'
p3073
I1
sS'intercommissur'
p3074
I1
sS'told'
p3075
I1
sS'asymmetri'
p3076
I10
sS'hyperinhibit'
p3077
I1
sS'amygdala-orbitofront'
p3078
I1
sS'barratt'
p3079
I1
sS'richest'
p3080
I1
sS'occas'
p3081
I8
sS'infant-fac'
p3082
I1
sS'pursuit'
p3083
I2
sS'pleasur'
p3084
I6
sS'non-religi'
p3085
I1
sS'neuroscientif'
p3086
I3
sS'loanword'
p3087
I1
sS'glm'
p3088
I2
sS'early-onset'
p3089
I4
sS'risk-estim'
p3090
I1
sS'adopt'
p3091
I4
sS'precis'
p3092
I16
sS'smoke'
p3093
I74
sS'studi'
p3094
I932
sS'twenty-four'
p3095
I2
sS'capsaicin-tr'
p3096
I2
sS'paracingul'
p3097
I10
sS'dmfc'
p3098
I2
sS'periventricular'
p3099
I2
sS'releas'
p3100
I7
sS'attitud'
p3101
I9
sS'blockad'
p3102
I2
sS'reinforcement-learn'
p3103
I1
sS'habenular'
p3104
I2
sS'euphoria-induc'
p3105
I1
sS'total'
p3106
I23
sS'nocicept'
p3107
I36
sS'describ'
p3108
I33
sS'would'
p3109
I80
sS'higher-protein'
p3110
I1
sS'insult'
p3111
I1
sS'program'
p3112
I6
sS'retali'
p3113
I3
sS'rightcompar'
p3114
I1
sS'insula'
p3115
I259
sS'is'
p3116
I981
sS'cognitively-induc'
p3117
I1
sS'image-process'
p3118
I1
sS'vps'
p3119
I2
sS'material-nonspecif'
p3120
I1
sS'inflect'
p3121
I26
sS'ventromedi'
p3122
I49
sS'award'
p3123
I1
sS'tegment'
p3124
I6
sS'own-neutr'
p3125
I1
sS'sadness-specif'
p3126
I2
sS'split-brain'
p3127
I1
sS'cumul'
p3128
I1
sS'origin'
p3129
I14
sS'must'
p3130
I11
sS'center-bias'
p3131
I2
sS'mg'
p3132
I14
sS'word'
p3133
I502
sS'erq'
p3134
I1
sS'restor'
p3135
I1
sS'mm'
p3136
I5
sS'ml'
p3137
I1
sS'mo'
p3138
I1
sS'work'
p3139
I363
sS'mi'
p3140
I2
sS'mj'
p3141
I14
sS'mammalian'
p3142
I2
sS'mt'
p3143
I5
sS'wors'
p3144
I7
sS'stimulus-bas'
p3145
I1
sS'erb'
p3146
I2
sS'multi-voxel'
p3147
I1
sS'petersen'
p3148
I1
sS'precuneus'
p3149
I52
sS'novic'
p3150
I2
sS'self-initi'
p3151
I1
sS'-month'
p3152
I2
sS'sixty-four'
p3153
I1
sS'indic'
p3154
I228
sS'impair'
p3155
I142
sS'misidentif'
p3156
I1
sS'ocd-fre'
p3157
I1
sS'vermal'
p3158
I1
sS'nonreward'
p3159
I2
sS'unspecif'
p3160
I1
sS'selemon'
p3161
I1
sS'non-ptsd'
p3162
I4
sS'preoper'
p3163
I2
sS'location-prob'
p3164
I3
sS'lateralis'
p3165
I7
sS'end'
p3166
I9
sS'far'
p3167
I14
sS'drummer'
p3168
I1
sS'recoveri'
p3169
I26
sS'interview'
p3170
I4
sS'verifi'
p3171
I1
sS'widespread'
p3172
I19
sS'pizza'
p3173
I1
sS'recogn'
p3174
I24
sS'tool-associ'
p3175
I1
sS'ocd-trigg'
p3176
I1
sS'chines'
p3177
I45
sS'after'
p3178
I146
sS'befor'
p3179
I43
sS'object-recall-from-featur'
p3180
I1
sS'lay'
p3181
I1
sS'nucleotid'
p3182
I1
sS'reward-provid'
p3183
I1
sS'midbrain'
p3184
I30
sS'right-middle-tempor'
p3185
I1
sS'parallel'
p3186
I22
sS'demonstr'
p3187
I223
sS'inventori'
p3188
I2
sS'domin'
p3189
I29
sS'triangulari'
p3190
I8
sS'exclud'
p3191
I4
sS'reward-sensit'
p3192
I5
sS'ipsilater'
p3193
I18
sS'verb'
p3194
I164
sS'green'
p3195
I4
sS'incorpor'
p3196
I8
sS'enter'
p3197
I5
sS'aloud'
p3198
I15
sS'mechan'
p3199
I191
sS'order'
p3200
I62
sS'operculum'
p3201
I19
sS'gyral'
p3202
I1
sS'visual-auditori'
p3203
I1
sS'composit'
p3204
I5
sS'endors'
p3205
I2
sS'diagnos'
p3206
I8
sS'over'
p3207
I72
sS'becaus'
p3208
I34
sS'dlpfc'
p3209
I106
sS'auditorili'
p3210
I2
sS'demarc'
p3211
I2
sS'incid'
p3212
I1
sS'cortic'
p3213
I349
sS'flexibl'
p3214
I9
sS'video'
p3215
I10
sS'alcohol-depend'
p3216
I9
sS'compensatori'
p3217
I18
sS'hypnot'
p3218
I4
sS'comprehend'
p3219
I3
sS'encoding-retriev'
p3220
I1
sS'regions-which'
p3221
I2
sS'comprehens'
p3222
I56
sS'induct'
p3223
I6
sS'neurodegen'
p3224
I1
sS'versus'
p3225
I117
sS'then'
p3226
I30
sS'them'
p3227
I28
sS'iowa'
p3228
I8
sS'corrobor'
p3229
I10
sS'uncorrel'
p3230
I2
sS'safe'
p3231
I11
sS'break'
p3232
I2
sS'band'
p3233
I3
sS'they'
p3234
I208
sS'parasylvian'
p3235
I1
sS'paced-overt'
p3236
I1
sS'dmpfc'
p3237
I8
sS'bank'
p3238
I8
sS'choic'
p3239
I107
sS'tendenc'
p3240
I9
sS'alex'
p3241
I5
sS'oxygen'
p3242
I62
sS'persever'
p3243
I5
sS'l'
p3244
I71
sS'stimulus'
p3245
I170
sS'good'
p3246
I22
sS'each'
p3247
I190
sS'complet'
p3248
I32
sS'alexia'
p3249
I2
sS'-laser-evok'
p3250
I1
sS'voxel'
p3251
I16
sS'hmsd'
p3252
I4
sS'transient'
p3253
I29
sS'slea'
p3254
I6
sS'intraop'
p3255
I1
sS'verbs-specif'
p3256
I1
sS'mesocorticolimb'
p3257
I2
sS'pain-fre'
p3258
I1
sS'depress'
p3259
I248
sS'nonsmok'
p3260
I17
sS'network'
p3261
I273
sS'newli'
p3262
I7
sS'morpholog'
p3263
I12
sS'fear-react'
p3264
I1
sS'fifty-f'
p3265
I1
sS'washer'
p3266
I1
sS'forti'
p3267
I3
sS'striato-thalam'
p3268
I1
sS'worthwhil'
p3269
I1
sS'monte-carlo'
p3270
I1
sS'non-fac'
p3271
I1
sS'well-defin'
p3272
I1
sS'free'
p3273
I7
sS'standard'
p3274
I35
sS'region-depend'
p3275
I1
sS'deqi'
p3276
I3
sS'ikuta'
p3277
I1
sS'unimpair'
p3278
I1
sS'jonid'
p3279
I1
sS'pressor'
p3280
I1
sS'monkey'
p3281
I11
sS'puzzl'
p3282
I1
sS'non-consci'
p3283
I1
sS'angl'
p3284
I1
sS'ritual'
p3285
I3
sS'longterm'
p3286
I1
sS'pain-induc'
p3287
I4
sS'midinsula'
p3288
I1
sS'unknown'
p3289
I40
sS'regress'
p3290
I23
sS'subtl'
p3291
I12
sS'onto'
p3292
I10
sS'hallucin'
p3293
I3
sS'rang'
p3294
I40
sS'kim'
p3295
I1
sS'render'
p3296
I2
sS'apprais'
p3297
I22
sS'independ'
p3298
I64
sS'pavlovian'
p3299
I6
sS'serotonerg'
p3300
I2
sS'insula-putamen-globus'
p3301
I1
sS'restrict'
p3302
I15
sS'alreadi'
p3303
I8
sS'sober'
p3304
I1
sS'neighborhood'
p3305
I2
sS'thick'
p3306
I1
sS'laser-evok'
p3307
I4
sS'primari'
p3308
I81
sS'nomin'
p3309
I4
sS'open-label'
p3310
I1
sS'sarcasm'
p3311
I13
sS'top'
p3312
I1
sS'euphoria'
p3313
I2
sS'sarcast'
p3314
I1
sS'hemifield'
p3315
I1
sS'vlpfc'
p3316
I25
sS'tom'
p3317
I3
sS'analgesia'
p3318
I17
sS'full-scal'
p3319
I2
sS'fronto-cingul'
p3320
I1
sS'murder'
p3321
I1
sS'-inform'
p3322
I1
sS'tool'
p3323
I48
sS'took'
p3324
I4
sS'western'
p3325
I1
sS'conserv'
p3326
I3
sS'sd-relat'
p3327
I1
sS'adject'
p3328
I11
sS'persev'
p3329
I2
sS'non-dement'
p3330
I1
sS'dopaminerg'
p3331
I19
sS'target'
p3332
I85
sS'radiograph'
p3333
I1
sS'provid'
p3334
I141
sS'cpt-specif'
p3335
I1
sS'biolog'
p3336
I38
sS'modulatori'
p3337
I3
sS'pressur'
p3338
I9
sS'iron'
p3339
I1
sS'minut'
p3340
I3
sS'outcome-specif'
p3341
I2
sS'minus'
p3342
I16
sS'fashion'
p3343
I8
sS'contenti'
p3344
I1
sS'salvag'
p3345
I1
sS'raw'
p3346
I1
sS'rat'
p3347
I1
sS'manner'
p3348
I16
sS'problem-solv'
p3349
I6
sS'adhd'
p3350
I24
sS'theoriz'
p3351
I2
sS'echo-planar'
p3352
I4
sS'subsid'
p3353
I2
sS'strength'
p3354
I15
sS'luxuri'
p3355
I1
sS'unresolv'
p3356
I4
sS'laden'
p3357
I2
sS'latter'
p3358
I18
sS'-'
p3359
I139
sS'superimpos'
p3360
I1
sS'healthy-weight'
p3361
I1
sS'post-capsaicin'
p3362
I1
sS'bis-'
p3363
I1
sS'mid-superior'
p3364
I2
sS'neurobiolog'
p3365
I24
sS'language-invari'
p3366
I2
sS'grodd'
p3367
I2
sS'anatomi'
p3368
I11
sS'preand'
p3369
I2
sS'germani'
p3370
I1
sS'though'
p3371
I11
sS'boxcar'
p3372
I1
sS'mother'
p3373
I23
sS'lexic'
p3374
I78
sS'preset'
p3375
I1
sS'frequency-modul'
p3376
I2
sS'dsm-iv-tr'
p3377
I2
sS'phase'
p3378
I51
sS'coil'
p3379
I2
sS'intergroup'
p3380
I1
sS'cathol'
p3381
I1
sS'flow'
p3382
I82
sS'transfer-appropri'
p3383
I1
sS'declar'
p3384
I3
sS'well-docu'
p3385
I2
sS'age-match'
p3386
I18
sS'left'
p3387
I816
sS'notion'
p3388
I19
sS'synapt'
p3389
I3
sS'opposit'
p3390
I15
sS'random'
p3391
I45
sS'meal'
p3392
I2
sS'geneticand'
p3393
I1
sS'hasegawa'
p3394
I2
sS'academi'
p3395
I1
sS'protocol'
p3396
I5
sS'bail'
p3397
I1
sS'hyperalges'
p3398
I1
sS'involv'
p3399
I473
sS'consolid'
p3400
I2
sS'latent'
p3401
I3
sS'spite'
p3402
I4
sS'mid-inferior'
p3403
I1
sS'configur'
p3404
I2
sS'ocd'
p3405
I49
sS'task-induc'
p3406
I6
sS'sonographi'
p3407
I1
sS'sympathet'
p3408
I3
sS'latenc'
p3409
I8
sS'disgust'
p3410
I90
sS'hrf'
p3411
I10
sS'predecessor'
p3412
I1
sS'do'
p3413
I35
sS'graspabl'
p3414
I6
sS'congruenc'
p3415
I5
sS'df'
p3416
I1
sS'de'
p3417
I1
sS'watch'
p3418
I13
sS'fluid'
p3419
I1
sS'pain-process'
p3420
I2
sS'nonselect'
p3421
I1
sS'congruent'
p3422
I24
sS'taqia'
p3423
I2
sS'report'
p3424
I113
sS'reconstruct'
p3425
I1
sS'dt'
p3426
I2
sS'ds'
p3427
I5
sS'diabet'
p3428
I2
sS'thulium-yag-'
p3429
I1
sS'reliant'
p3430
I1
sS'de-novo'
p3431
I1
sS'limbic-thalamic-cort'
p3432
I1
sS'well-preserv'
p3433
I1
sS'cleanli'
p3434
I1
sS'contrast'
p3435
I205
sS'emr'
p3436
I3
sS'unmed'
p3437
I21
sS'lobul'
p3438
I38
sS'their'
p3439
I217
sS'habit'
p3440
I3
sS'school-ag'
p3441
I1
sS'parol'
p3442
I1
sS'resist'
p3443
I5
sS'imput'
p3444
I1
sS'cingu-l'
p3445
I1
sS'mirror-revers'
p3446
I6
sS'expertis'
p3447
I1
sS'awar'
p3448
I21
sS'er-fmri'
p3449
I2
sS'away'
p3450
I5
sS'nondepress'
p3451
I1
sS'sequenti'
p3452
I12
sS'finger'
p3453
I5
sS'co-vari'
p3454
I2
sS'drawn'
p3455
I2
sS'approach'
p3456
I36
sS'wg'
p3457
I3
sS'inton'
p3458
I5
sS'accord'
p3459
I57
sS'positron'
p3460
I79
sS'hyperactiv'
p3461
I8
sS'wm'
p3462
I102
sS'weak'
p3463
I3
sS'wr'
p3464
I3
sS'intox'
p3465
I5
sS'body-select'
p3466
I1
sS'checklist-revis'
p3467
I2
sS'amygdalohippocamp'
p3468
I2
sS'acoust'
p3469
I10
sS'cow'
p3470
I1
sS'howev'
p3471
I243
sS'prefont'
p3472
I2
sS'coa'
p3473
I4
sS'information-ar'
p3474
I1
sS'sensory-bas'
p3475
I2
sS'cog'
p3476
I1
sS'neurotransmiss'
p3477
I4
sS'anticipatori'
p3478
I20
sS'pariet'
p3479
I269
sS'tone'
p3480
I14
sS'task-rel'
p3481
I20
sS'character'
p3482
I74
sS'gender-specif'
p3483
I2
sS'occipital-tempor'
p3484
I1
sS'permut'
p3485
I1
sS'intraindividu'
p3486
I2
sS'wider'
p3487
I4
sS'guid'
p3488
I18
sS'speak'
p3489
I7
sS'strong'
p3490
I66
sS'nonsens'
p3491
I8
sS'non-verb'
p3492
I3
sS'sixty-seven'
p3493
I1
sS'bromociptin'
p3494
I1
sS'been'
p3495
I260
sS'late-onset'
p3496
I1
sS'thereaft'
p3497
I1
sS'monologu'
p3498
I1
sS'cortico'
p3499
I1
sS'warmth'
p3500
I1
sS'occipit'
p3501
I75
sS'perisylvian'
p3502
I7
sS'technetium-'
p3503
I1
sS'endur'
p3504
I4
sS'interstimulus'
p3505
I2
sS'anteroposterior'
p3506
I1
sS'catch'
p3507
I1
sS'inattent'
p3508
I1
sS'physician'
p3509
I2
sS'inhibit'
p3510
I31
sS'ident'
p3511
I48
sS'sculpt'
p3512
I1
sS'explanatori'
p3513
I1
sS'properti'
p3514
I23
sS'lessen'
p3515
I1
sS'n'
p3516
I89
sS'aim'
p3517
I59
sS'pairwis'
p3518
I1
sS'aid'
p3519
I4
sS'aural'
p3520
I8
sS'vagu'
p3521
I1
sS'withdrawal-retard'
p3522
I1
sS'subcort'
p3523
I43
sS'cont'
p3524
I3
sS'lower-level'
p3525
I1
sS'cohes'
p3526
I3
sS'abstinence-induc'
p3527
I1
sS'dmdd'
p3528
I6
sS'parahippocampus'
p3529
I2
sS'mdd-show'
p3530
I1
sS'early-lif'
p3531
I1
sS'inpati'
p3532
I3
sS'dementia'
p3533
I5
sS'pattern-analysi'
p3534
I1
sS'perform'
p3535
I520
sS'suggest'
p3536
I532
sS'violat'
p3537
I9
sS'supervisori'
p3538
I1
sS'drawback'
p3539
I1
sS'descend'
p3540
I2
sS'stereotact'
p3541
I4
sS'mtls'
p3542
I1
sS'lithium'
p3543
I2
sS'hot-cold-unfriend'
p3544
I1
sS'wheel'
p3545
I4
sS'nih'
p3546
I1
sS'evid'
p3547
I186
sS'hand'
p3548
I68
sS'rais'
p3549
I7
sS'younger-ag'
p3550
I1
sS'treatment-resist'
p3551
I2
sS'overt-speech'
p3552
I1
sS'kept'
p3553
I2
sS'undesir'
p3554
I2
sS'scenario'
p3555
I5
sS'thirty-four'
p3556
I1
sS'thirty-nin'
p3557
I1
sS'contact'
p3558
I16
sS'acupoint'
p3559
I2
sS'epi'
p3560
I1
sS'the'
p3561
I9520
sS'self-awar'
p3562
I2
sS'learning-rel'
p3563
I4
sS'stringent'
p3564
I1
sS'photo'
p3565
I2
sS'rodent'
p3566
I2
sS'wm-system'
p3567
I1
sS'preoccupi'
p3568
I1
sS'satiat'
p3569
I9
sS'in-scann'
p3570
I1
sS'expos'
p3571
I21
sS'interfer'
p3572
I20
sS'shout'
p3573
I1
sS'spread'
p3574
I1
sS'melanopsin-express'
p3575
I2
sS'fiber'
p3576
I2
sS'other-evalu'
p3577
I2
sS'apart'
p3578
I4
sS'plasma'
p3579
I2
sS'schizoaffect'
p3580
I2
sS'midrang'
p3581
I1
sS'face-to-fac'
p3582
I1
sS'disposit'
p3583
I2
sS'donat'
p3584
I2
sS'own-unknown'
p3585
I1
sS'tranel'
p3586
I1
sS'modality-independ'
p3587
I1
sS'dimorph'
p3588
I1
sS'hypoand'
p3589
I1
sS'leftand'
p3590
I4
sS'readili'
p3591
I1
sS'divert'
p3592
I3
sS'chequerboard'
p3593
I1
sS'bpe'
p3594
I2
sS'bpd'
p3595
I61
sS'vis'
p3596
I1
sS'contradict'
p3597
I2
sS'arbitrari'
p3598
I1
sS'bpm'
p3599
I4
sS'stroke'
p3600
I6
sS'amod'
p3601
I3
sS'disease-relev'
p3602
I2
sS'night'
p3603
I2
sS'script-to-sound'
p3604
I2
sS'acad'
p3605
I1
sS'salin'
p3606
I5
sS'transvers'
p3607
I2
sS'negat'
p3608
I283
sS'excerpt'
p3609
I2
sS'percentag'
p3610
I10
sS'viz'
p3611
I2
sS'flatten'
p3612
I1
sS'lpmtg'
p3613
I2
sS'indirect'
p3614
I2
sS'guess'
p3615
I16
sS'unchosen'
p3616
I1
sS'cooper'
p3617
I3
sS'cns'
p3618
I2
sS'amygdala-rel'
p3619
I1
sS'ice'
p3620
I4
sS'memor'
p3621
I6
sS'overcom'
p3622
I6
sS'core'
p3623
I16
sS'object-rel'
p3624
I3
sS'pose'
p3625
I2
sS'confer'
p3626
I2
sS'hsm'
p3627
I9
sS'discount'
p3628
I13
sS'peer'
p3629
I5
sS'mesolimb'
p3630
I8
sS'post'
p3631
I9
sS'trigemin'
p3632
I6
sS'chapter'
p3633
I1
sS'letter-sound'
p3634
I1
sS'prodrom'
p3635
I1
sS'literatur'
p3636
I19
sS'networks-on'
p3637
I1
sS'contamin'
p3638
I9
sS'plus'
p3639
I7
sS'liber'
p3640
I1
sS'fiduci'
p3641
I1
sS'own-sad'
p3642
I1
sS'produc'
p3643
I97
sS'unrespons'
p3644
I1
sS'co-morbid'
p3645
I1
sS'mediolater'
p3646
I1
sS'aha'
p3647
I2
sS'dilemma'
p3648
I4
sS'never-med'
p3649
I3
sS'encod'
p3650
I203
sS'bound'
p3651
I1
sS'curios'
p3652
I1
sS'ahv'
p3653
I1
sS'brain-a'
p3654
I1
sS'speech-ton'
p3655
I1
sS'storag'
p3656
I9
sS'anorexia'
p3657
I2
sS'psychot'
p3658
I22
sS'frustrat'
p3659
I1
sS'premotor'
p3660
I75
sS'trauma-expos'
p3661
I3
sS'sylvian'
p3662
I1
sS'reli'
p3663
I21
sS'subaverag'
p3664
I1
sS'appet'
p3665
I3
sS'way'
p3666
I20
sS'was'
p3667
I1316
sS'war'
p3668
I1
sS'psychol'
p3669
I1
sS'lowest'
p3670
I3
sS'head'
p3671
I12
sS'-year'
p3672
I1
sS'amateur'
p3673
I1
sS'deaf'
p3674
I7
sS'nonpref'
p3675
I2
sS'maxim'
p3676
I10
sS'heat'
p3677
I62
sS'hear'
p3678
I13
sS'electrocort'
p3679
I1
sS'true'
p3680
I10
sS'catalan-born'
p3681
I1
sS'retin'
p3682
I4
sS'lentiform'
p3683
I4
sS'flavour'
p3684
I1
sS'middle-ag'
p3685
I3
sS'emin'
p3686
I1
sS'maximum'
p3687
I8
sS'vivo'
p3688
I6
sS'visual-fix'
p3689
I1
sS'emotion-elicit'
p3690
I1
sS'minor'
p3691
I1
sS'absenc'
p3692
I36
sS'fundament'
p3693
I19
sS'mtg'
p3694
I4
sS'rcbf'
p3695
I82
sS'rif'
p3696
I2
sS'monotherapi'
p3697
I10
sS'monomorphem'
p3698
I1
sS'alongsid'
p3699
I1
sS'ln'
p3700
I2
sS'tesla'
p3701
I5
sS'request'
p3702
I2
sS'abstract'
p3703
I33
sS'reexamin'
p3704
I1
sS'muscular'
p3705
I1
sS'limbic'
p3706
I74
sS'ltle'
p3707
I4
sS'empath'
p3708
I11
sS'face'
p3709
I566
sS'interf'
p3710
I4
sS'implent'
p3711
I1
sS'assembl'
p3712
I8
sS'nk'
p3713
I7
sS'nm'
p3714
I3
sS'no'
p3715
I214
sS'na'
p3716
I2
sS'dacc'
p3717
I12
sS'when'
p3718
I319
sS'ne'
p3719
I5
sS'action-valu'
p3720
I2
sS'test'
p3721
I174
sS'tie'
p3722
I1
sS'appetit'
p3723
I19
sS'short-term'
p3724
I13
sS'hundr'
p3725
I2
sS'realiti'
p3726
I3
sS'node'
p3727
I4
sS'prelingu'
p3728
I1
sS'schizo-affect'
p3729
I1
sS'stimulus-correl'
p3730
I3
sS'single-cas'
p3731
I1
sS'-tesla'
p3732
I3
sS'hormon'
p3733
I2
sS'dose-rel'
p3734
I3
sS'value-cod'
p3735
I1
sS'consid'
p3736
I31
sS'imping'
p3737
I1
sS'regular-irregular'
p3738
I1
sS'exner'
p3739
I1
sS'state-rel'
p3740
I5
sS'blood-oxygen-level-depend'
p3741
I3
sS'younger'
p3742
I9
sS'own-happi'
p3743
I1
sS'alexithym'
p3744
I1
sS'center-peripheri'
p3745
I3
sS'uninfluenc'
p3746
I2
sS'selfand'
p3747
I4
sS'withhold'
p3748
I1
sS'icc'
p3749
I1
sS'karger'
p3750
I2
sS'functional-area'
p3751
I1
sS'fact'
p3752
I14
sS'components-specif'
p3753
I1
sS'serious'
p3754
I7
sS'nuclei'
p3755
I3
sS'backward'
p3756
I6
sS'roi'
p3757
I13
sS'concept'
p3758
I25
sS'bolus'
p3759
I4
sS'consum'
p3760
I9
sS'picture-view'
p3761
I1
sS'focus'
p3762
I52
sS'signific'
p3763
I456
sS'supplement'
p3764
I1
sS'session-wis'
p3765
I1
sS'subcompon'
p3766
I1
sS'row'
p3767
I6
sS'chinese-english'
p3768
I2
sS'middl'
p3769
I166
sS'zone'
p3770
I4
sS'flash'
p3771
I2
sS'risk-anticip'
p3772
I1
sS'environment'
p3773
I9
sS'melod'
p3774
I3
sS'disengag'
p3775
I3
sS'brown'
p3776
I1
sS'sourc'
p3777
I24
sS'impend'
p3778
I1
sS'phobogen'
p3779
I2
sS'highor'
p3780
I1
sS'unfamiliar'
p3781
I33
sS'feasibl'
p3782
I6
sS'reinforcement-bas'
p3783
I1
sS'contamination-rel'
p3784
I1
sS'administr'
p3785
I12
sS'level'
p3786
I187
sS'reconcil'
p3787
I1
sS'brother'
p3788
I4
sS'p'
p3789
I99
sS'decision-rel'
p3790
I1
sS'crosshair'
p3791
I1
sS'gut'
p3792
I1
sS'quick'
p3793
I1
sS'well-control'
p3794
I1
sS'upper'
p3795
I6
sS'noncarri'
p3796
I2
sS'slower'
p3797
I12
sS'regret'
p3798
I10
sS'mastoid'
p3799
I1
sS'trend'
p3800
I9
sS'associative-memori'
p3801
I1
sS'damcc'
p3802
I3
sS'cost'
p3803
I9
sS'pma'
p3804
I6
sS'mid-level'
p3805
I1
sS'stimulus-to-represent'
p3806
I1
sS'improv'
p3807
I44
sS'risky-gain'
p3808
I1
sS'chicken'
p3809
I1
sS'precipit'
p3810
I1
sS'inconclus'
p3811
I2
sS'spectral'
p3812
I1
sS'appear'
p3813
I63
sS'rvlpfc'
p3814
I3
sS'twenty-nin'
p3815
I2
sS'uniform'
p3816
I3
sS'axial'
p3817
I1
sS'appeal'
p3818
I1
sS'nakamura'
p3819
I1
sS'bp-i'
p3820
I3
sS'defici'
p3821
I8
sS'v'
p3822
I22
sS'coeffici'
p3823
I5
sS'satisfi'
p3824
I2
sS'condition-a'
p3825
I1
sS'cue-elicit'
p3826
I7
sS'cortico-striat'
p3827
I1
sS'noninvas'
p3828
I4
sS'kalman'
p3829
I1
sS'splenium'
p3830
I1
sS'precursor'
p3831
I1
sS'twenty-seven'
p3832
I1
sS'trial'
p3833
I94
sS'visual-associ'
p3834
I1
sS'dichot'
p3835
I2
sS'healthi'
p3836
I454
sS'triad'
p3837
I7
sS'task-relev'
p3838
I3
sS'semant'
p3839
I378
sS'rewards-imag'
p3840
I1
sS'regardless'
p3841
I26
sS'extra'
p3842
I3
sS'midcingul'
p3843
I8
sS'non-meaning'
p3844
I2
sS'l-dopa'
p3845
I2
sS'visibl'
p3846
I1
sS'volumetr'
p3847
I1
sS'theoret'
p3848
I11
sS'erotica'
p3849
I2
sS'market'
p3850
I4
sS'prove'
p3851
I5
sS'subscal'
p3852
I2
sS'republican'
p3853
I1
sS'broadmann'
p3854
I1
sS'live'
p3855
I17
sS'criteria'
p3856
I9
sS'suppos'
p3857
I3
sS'desynchron'
p3858
I3
sS'prep'
p3859
I3
sS'reorder'
p3860
I1
sS'menstrual'
p3861
I1
sS'capit'
p3862
I1
sS'talairach'
p3863
I3
sS'frontopolar'
p3864
I14
sS'predesign'
p3865
I1
sS'share'
p3866
I39
sS'finit'
p3867
I1
sS'self-oth'
p3868
I2
sS'unconsci'
p3869
I11
sS'reward-seek'
p3870
I3
sS'adipos'
p3871
I1
sS'religi'
p3872
I7
sS'graphic'
p3873
I1
sS'neuro-cognit'
p3874
I1
sS'attention-demand'
p3875
I2
sS'local'
p3876
I51
sS'prepar'
p3877
I23
sS'judg'
p3878
I25
sS'vestibular-visu'
p3879
I1
sS'putamen-globus'
p3880
I1
sS'can'
p3881
I141
sS'inadequ'
p3882
I2
sS'purpos'
p3883
I19
sS'amygdala-hippocamp'
p3884
I4
sS'puriti'
p3885
I2
sS'stream'
p3886
I23
sS'spp'
p3887
I3
sS'chip'
p3888
I2
sS'topic'
p3889
I4
sS'heard'
p3890
I10
sS'unknown-neutr'
p3891
I1
sS'abort'
p3892
I2
sS'recollect'
p3893
I5
sS'cardin'
p3894
I3
sS'differenti'
p3895
I133
sS'multipl'
p3896
I62
sS'dysregul'
p3897
I6
sS'antidepress'
p3898
I28
sS'write'
p3899
I8
sS'vbm'
p3900
I4
sS'flank'
p3901
I1
sS'fourth'
p3902
I5
sS'familiar'
p3903
I60
sS'opiat'
p3904
I4
sS'product'
p3905
I50
sS'aoa'
p3906
I4
sS'coars'
p3907
I2
sS'non-emot'
p3908
I5
sS'drastic'
p3909
I1
sS'severity-depend'
p3910
I1
sS'innerv'
p3911
I1
sS'interitem'
p3912
I1
sS'practic'
p3913
I19
sS'liquid'
p3914
I1
sS'explicit'
p3915
I65
sS'offens'
p3916
I1
sS'inform'
p3917
I225
sS'counterbalanc'
p3918
I7
sS'preced'
p3919
I20
sS'combin'
p3920
I62
sS'nonpyschot'
p3921
I1
sS'offend'
p3922
I1
sS'moderate-to-sever'
p3923
I3
sS'dopamine-associ'
p3924
I1
sS'anticip'
p3925
I142
sS'blocker'
p3926
I2
sS'approv'
p3927
I2
sS'mass-univari'
p3928
I1
sS'risk-seek'
p3929
I5
sS'brain'
p3930
I982
sS'vrs'
p3931
I1
sS'hyperarous'
p3932
I2
sS'cold'
p3933
I4
sS'still'
p3934
I24
sS'dynam'
p3935
I34
sS'conjunct'
p3936
I23
sS'relaps'
p3937
I7
sS'opportun'
p3938
I4
sS'vestibular'
p3939
I6
sS'window'
p3940
I3
sS'farmer'
p3941
I2
sS'factual'
p3942
I5
sS'ppi'
p3943
I6
sS'nom'
p3944
I3
sS'non'
p3945
I2
sS'evok'
p3946
I79
sS'recal'
p3947
I24
sS'gray'
p3948
I12
sS'valence-independ'
p3949
I1
sS'evoc'
p3950
I4
sS'disabl'
p3951
I3
sS'disloc'
p3952
I1
sS'hamilton'
p3953
I4
sS'aesthet'
p3954
I1
sS'half'
p3955
I14
sS'not'
p3956
I478
sS'discuss'
p3957
I30
sS'nor'
p3958
I4
sS'unstructur'
p3959
I1
sS'term'
p3960
I35
sS'name'
p3961
I100
sS'education-'
p3962
I1
sS'uncertain'
p3963
I21
sS'drop'
p3964
I1
sS'script-driven'
p3965
I2
sS'high-calor'
p3966
I4
sS'cerebr'
p3967
I168
sS'biograph'
p3968
I1
sS'condition-bas'
p3969
I1
sS'lpmc'
p3970
I2
sS'high-interfer'
p3971
I1
sS'non-psychot'
p3972
I1
sS'esophag'
p3973
I1
sS'electroderm'
p3974
I4
sS'domain'
p3975
I27
sS'ailment'
p3976
I1
sS'ee'
p3977
I1
sS'ed'
p3978
I2
sS'eg'
p3979
I5
sS'kana'
p3980
I8
sS'non-object'
p3981
I2
sS'ihand'
p3982
I1
sS'ghrelin'
p3983
I4
sS'begun'
p3984
I4
sS'year'
p3985
I57
sS'et'
p3986
I16
sS'happen'
p3987
I2
sS'ev'
p3988
I7
sS'er'
p3989
I1
sS'uncu'
p3990
I3
sS'shown'
p3991
I67
sS'accomplish'
p3992
I5
sS'concur'
p3993
I1
sS'typolog'
p3994
I1
sS'infarct'
p3995
I3
sS'space'
p3996
I8
sS'infrar'
p3997
I2
sS'thirst'
p3998
I7
sS'profil'
p3999
I17
sS'rostral'
p4000
I35
sS'disinhibit'
p4001
I1
sS'grey-scal'
p4002
I2
sS'subcategor'
p4003
I2
sS'ironi'
p4004
I2
sS'n-letter'
p4005
I1
sS'factori'
p4006
I11
sS'insular'
p4007
I58
sS'rumin'
p4008
I1
sS'melanopsin'
p4009
I1
sS'ascertain'
p4010
I3
sS'argu'
p4011
I11
sS'reward-direct'
p4012
I2
sS'theori'
p4013
I59
sS'alcohol-associ'
p4014
I5
sS'card'
p4015
I9
sS'care'
p4016
I4
sS'chose'
p4017
I5
sS'prescrib'
p4018
I3
sS'states-mania'
p4019
I1
sS'dl-pfc'
p4020
I2
sS'forecast'
p4021
I1
sS'honest'
p4022
I1
sS'thompson-schil'
p4023
I2
sS'turn'
p4024
I11
sS'lie'
p4025
I3
sS'non-competit'
p4026
I1
sS'place'
p4027
I9
sS'two-word'
p4028
I1
sS'childhood'
p4029
I5
sS'iwata'
p4030
I1
sS'blind'
p4031
I1
sS'coretex'
p4032
I1
sS'emotion-specif'
p4033
I4
sS'conform'
p4034
I1
sS'beverag'
p4035
I10
sS'transform'
p4036
I9
sS'craver'
p4037
I5
sS'array'
p4038
I1
sS'fight'
p4039
I1
sS'angular'
p4040
I15
sS'size'
p4041
I17
sS'sheep'
p4042
I1
sS'given'
p4043
I38
sS'silent'
p4044
I36
sS'teenag'
p4045
I1
sS'imit'
p4046
I13
sS'caught'
p4047
I1
sS'callous'
p4048
I4
sS'anderson'
p4049
I1
sS'plastic'
p4050
I7
sS'fluent-dur'
p4051
I1
sS'necessarili'
p4052
I5
sS'subclin'
p4053
I2
sS'categoryspecif'
p4054
I1
sS'meta-cognit'
p4055
I1
sS'white'
p4056
I3
sS'iap'
p4057
I10
sS'friend'
p4058
I15
sS'cs-'
p4059
I1
sS'neurolept'
p4060
I12
sS'especi'
p4061
I23
sS'copi'
p4062
I3
sS'pnt'
p4063
I2
sS'specifi'
p4064
I15
sS'pathogenesi'
p4065
I3
sS'over-activ'
p4066
I1
sS'enigma'
p4067
I1
sS'single-tri'
p4068
I5
sS'hypofunct'
p4069
I1
sS'than'
p4070
I349
sS'serv'
p4071
I26
sS'damasio'
p4072
I3
sS'lucrat'
p4073
I1
sS'mother-child'
p4074
I1
sS'recruit'
p4075
I117
sS'network-wid'
p4076
I1
sS'r'
p4077
I24
sS'category-driven'
p4078
I2
sS'balanc'
p4079
I10
sS'volar'
p4080
I3
sS'posit'
p4081
I216
sS'serm'
p4082
I1
sS'cingul'
p4083
I422
sS'seri'
p4084
I23
sS'higgin'
p4085
I1
sS'prg'
p4086
I5
sS'delib'
p4087
I1
sS'self-stat'
p4088
I1
sS'craik'
p4089
I1
sS'angel'
p4090
I1
sS'noninsight'
p4091
I4
sS'multiple-domain'
p4092
I1
sS'ani'
p4093
I28
sS'delin'
p4094
I8
sS'medium'
p4095
I4
sS'innominata'
p4096
I1
sS'deliv'
p4097
I17
sS'anger'
p4098
I16
sS'breakfast'
p4099
I10
sS'trust'
p4100
I2
sS'pixel-by-pixel'
p4101
I1
sS'techniqu'
p4102
I32
sS'amyotroph'
p4103
I1
sS'veteran'
p4104
I5
sS'feature-depend'
p4105
I1
sS'emphasis'
p4106
I2
sS'exploratori'
p4107
I10
sS'blunt'
p4108
I8
sS'begin'
p4109
I8
sS'sure'
p4110
I1
sS'multipli'
p4111
I1
sS'price'
p4112
I4
sS'connot'
p4113
I12
sS'nonmonetari'
p4114
I5
sS'meta-analysi'
p4115
I5
sS'america'
p4116
I1
sS'non-phob'
p4117
I2
sS'icon'
p4118
I1
sS'domain-rel'
p4119
I1
sS'sd-driven'
p4120
I2
sS'later'
p4121
I206
sS'underactiv'
p4122
I7
sS'nonpredict'
p4123
I1
sS'quantiti'
p4124
I2
sS'meanwhil'
p4125
I1
sS'crossov'
p4126
I4
sS'mri'
p4127
I97
sS'senior'
p4128
I6
sS'aprosodia'
p4129
I2
sS'steadi'
p4130
I2
sS'deleteri'
p4131
I1
sS'other-relev'
p4132
I1
sS'german'
p4133
I2
sS'so-cal'
p4134
I3
sS'infant'
p4135
I20
sS'multislic'
p4136
I2
sS'inverted-u'
p4137
I1
sS'venlafaxin'
p4138
I2
sS'creativity-rel'
p4139
I1
sS'fifti'
p4140
I1
sS'basalganglia'
p4141
I1
sS'ratio'
p4142
I2
sS'interperson'
p4143
I13
sS'homologu'
p4144
I13
sS'state'
p4145
I137
sS'multiscal'
p4146
I1
sS'analyz'
p4147
I35
sS'frequency-devi'
p4148
I1
sS'late-stag'
p4149
I1
sS'stain'
p4150
I2
sS'analyt'
p4151
I4
sS'analys'
p4152
I103
sS'symptom-relev'
p4153
I1
sS'absent'
p4154
I8
sS'mfc'
p4155
I3
sS'loath'
p4156
I1
sS'lay-person'
p4157
I1
sS'cannot'
p4158
I7
sS'ssi'
p4159
I1
sS'percept'
p4160
I151
sS'lighter'
p4161
I1
sS'one-argu'
p4162
I1
sS'nonliv'
p4163
I9
sS'quetiapin'
p4164
I5
sS'truli'
p4165
I3
sS'reveal'
p4166
I177
sS'leub'
p4167
I2
sS'subject-by-subject'
p4168
I1
sS'nonspecif'
p4169
I3
sS'hostil'
p4170
I1
sS'intermitt'
p4171
I1
sS'intrins'
p4172
I15
sS'thalamus'
p4173
I139
sS'irrespect'
p4174
I10
sS'through'
p4175
I42
sS'preliminarili'
p4176
I2
sS'husband'
p4177
I2
sS'wm-relat'
p4178
I3
sS'concert'
p4179
I4
sS'burst'
p4180
I1
sS'hypoact'
p4181
I7
sS'erot'
p4182
I10
sS'avow'
p4183
I1
sS'anatomical-funct'
p4184
I1
sS'sport'
p4185
I2
sS'concern'
p4186
I29
sS'learning-associ'
p4187
I1
sS'detect'
p4188
I88
sS'experience-induc'
p4189
I1
sS'review'
p4190
I5
sS'four-factor'
p4191
I1
sS'lettercas'
p4192
I1
sS'inhibitori'
p4193
I12
sS'between'
p4194
I477
sS'mandarin'
p4195
I2
sS'import'
p4196
I125
sS'cardiovascular'
p4197
I1
sS'dextral'
p4198
I4
sS'two-deck'
p4199
I1
sS'mtl'
p4200
I22
sS'amplif'
p4201
I1
sS'dopaminocept'
p4202
I1
sS'supramarginali'
p4203
I1
sS'magnetoencephalograph'
p4204
I2
sS'reaction'
p4205
I59
sS'unrel'
p4206
I15
sS'prosod'
p4207
I2
sS'pertain'
p4208
I2
sS'task-select'
p4209
I1
sS'monk'
p4210
I1
sS'inconsist'
p4211
I22
sS'nonreferenti'
p4212
I1
sS'drug-induc'
p4213
I1
sS'color'
p4214
I8
sS'psychomotor'
p4215
I3
sS'inspir'
p4216
I1
sS'por'
p4217
I1
sS'period'
p4218
I36
sS'pop'
p4219
I2
sS'pon'
p4220
I1
sS'exploit'
p4221
I9
sS'featur'
p4222
I90
sS'subsampl'
p4223
I2
sS'speech-process'
p4224
I2
sS'endeavor'
p4225
I2
sS'uchida'
p4226
I1
sS'damag'
p4227
I19
sS'save'
p4228
I4
sS'clarif'
p4229
I1
sS'dyslexia'
p4230
I5
sS'coupl'
p4231
I11
sS'howard'
p4232
I1
sS'invert'
p4233
I6
sS'forearm'
p4234
I11
sS'aberr'
p4235
I10
sS'invers'
p4236
I23
sS'neurocircuitri'
p4237
I6
sS'ih'
p4238
I8
sS'far-reach'
p4239
I1
sS'overactiv'
p4240
I15
sS'tasteless'
p4241
I1
sS'emphas'
p4242
I15
sS'psychoact'
p4243
I1
sS'non-crav'
p4244
I5
sS'wcst'
p4245
I1
sS'periaqueduc'
p4246
I1
sS'pilot'
p4247
I7
sS'case'
p4248
I21
sS'refractori'
p4249
I1
sS'longitudin'
p4250
I7
sS'long-dist'
p4251
I1
sS'self-represent'
p4252
I1
sS'these'
p4253
I818
sS'stereotyp'
p4254
I7
sS'trick'
p4255
I1
sS'cast'
p4256
I2
sS'emotion-induc'
p4257
I1
sS'cocain'
p4258
I10
sS'-week'
p4259
I3
sS'spanish-born'
p4260
I1
sS'engend'
p4261
I2
sS'metric'
p4262
I2
sS'henc'
p4263
I8
sS'uncov'
p4264
I3
sS'bias'
p4265
I52
sS'develop'
p4266
I70
sS'author'
p4267
I24
sS'alphabet'
p4268
I12
sS'medic'
p4269
I38
sS'fronto-limb'
p4270
I2
sS'check'
p4271
I3
sS'epoch'
p4272
I2
sS'empathi'
p4273
I34
sS'conspecif'
p4274
I2
sS'ecolog'
p4275
I2
sS'document'
p4276
I11
sS'sub-region'
p4277
I2
sS'single-photon'
p4278
I1
sS'blackwel'
p4279
I4
sS'week'
p4280
I31
sS'nh'
p4281
I5
sS'bold-sign'
p4282
I2
sS'transcutan'
p4283
I2
sS'palmar'
p4284
I1
sS'driver'
p4285
I1
sS'someon'
p4286
I1
sS'director'
p4287
I2
sS'fruit'
p4288
I9
sS'cartoon'
p4289
I4
sS'corticosubcort'
p4290
I1
sS'pervas'
p4291
I2
sS'moder'
p4292
I16
sS'pennsylvania'
p4293
I1
sS'cortex--ar'
p4294
I1
sS'frontal-parietal-cingul'
p4295
I1
sS'without'
p4296
I54
sS'relief'
p4297
I3
sS'pattern-recognit'
p4298
I1
sS'reward'
p4299
I545
sS'deconvolut'
p4300
I1
sS'violenc'
p4301
I8
sS'self-relev'
p4302
I7
sS'nd'
p4303
I1
sS'language-rest'
p4304
I1
sS'violent'
p4305
I2
sS'handed'
p4306
I3
sS'touch'
p4307
I3
sS'exacerb'
p4308
I2
sS'speed'
p4309
I8
sS'death'
p4310
I2
sS'psychotrop'
p4311
I4
sS'non-alcohol-contain'
p4312
I1
sS'unpract'
p4313
I1
sS'distort'
p4314
I10
sS'except'
p4315
I12
sS'complain'
p4316
I1
sS'fagerstr'
p4317
I3
sS'motivation-depend'
p4318
I1
sS'treatment'
p4319
I114
sS'versa'
p4320
I3
sS'vulner'
p4321
I10
sS'disrupt'
p4322
I14
sS'earli'
p4323
I59
sS'frown'
p4324
I3
sS'hypothesi'
p4325
I101
sS'read'
p4326
I130
sS'np'
p4327
I3
sS'deplet'
p4328
I2
sS'amp'
p4329
I11
sS'detoxifi'
p4330
I7
sS'owns-an'
p4331
I1
sS'fibromyalgia'
p4332
I6
sS'benefit'
p4333
I10
sS'subsequent-memori'
p4334
I1
sS't'
p4335
I52
sS'cascad'
p4336
I2
sS'output'
p4337
I13
sS'downward'
p4338
I1
sS'pereira'
p4339
I1
sS'random-dot'
p4340
I1
sS'on'
p4341
I636
sS'verbal'
p4342
I172
sS'-ms'
p4343
I4
sS'motor-perceptu'
p4344
I1
sS'failure--to'
p4345
I1
sS'-mo'
p4346
I3
sS'supralinear'
p4347
I1
sS'hemodynam'
p4348
I28
sS'word-pictur'
p4349
I1
sS'freez'
p4350
I1
sS'slice'
p4351
I4
sS'mood'
p4352
I54
sS'characteris'
p4353
I5
sS'smoking-rel'
p4354
I16
sS'right-hand'
p4355
I55
sS'landscap'
p4356
I1
sS'cv'
p4357
I1
sS'intract'
p4358
I2
sS'deficit'
p4359
I149
sS'prequit'
p4360
I2
sS'novel-vs-rep'
p4361
I1
sS'wais-r'
p4362
I1
sS'complic'
p4363
I1
sS'ht-vis'
p4364
I1
sS'grammatical-class'
p4365
I1
sS'immun'
p4366
I1
sS'sixti'
p4367
I2
sS'unmask'
p4368
I1
sS'imaging-bas'
p4369
I1
sS'throw'
p4370
I3
sS'earlier'
p4371
I17
sS'oo'
p4372
I1
sS'comparison'
p4373
I178
sS'central'
p4374
I59
sS'og'
p4375
I5
sS'median-split'
p4376
I1
sS'oe'
p4377
I1
sS'oc'
p4378
I4
sS'srl'
p4379
I1
sS'degre'
p4380
I112
sS'hypothalamus'
p4381
I16
sS'stand'
p4382
I2
sS'os'
p4383
I1
sS'or'
p4384
I682
sS'routin'
p4385
I1
sS're-entr'
p4386
I1
sS'elementari'
p4387
I2
sS'resampl'
p4388
I3
sS'euklidian'
p4389
I1
sS'spinal'
p4390
I1
sS'vagueand'
p4391
I1
sS'shock'
p4392
I6
sS'midbrain-medi'
p4393
I1
sS'scrs'
p4394
I3
sS'pain-intensity-rel'
p4395
I1
sS'punishment-process'
p4396
I1
sS'area'
p4397
I736
sS'there'
p4398
I188
sS'start'
p4399
I11
sS'lop'
p4400
I1
sS'low'
p4401
I62
sS'unequ'
p4402
I1
sS'premis'
p4403
I3
sS'strict'
p4404
I2
sS'leach'
p4405
I1
sS'hard'
p4406
I2
sS'regard'
p4407
I41
sS'posterior'
p4408
I264
sS'diffus'
p4409
I3
sS'perinat'
p4410
I1
sS'goal-ori'
p4411
I1
sS'hyperphag'
p4412
I1
sS'illus'
p4413
I6
sS'inter-stimulus-interv'
p4414
I1
sS'longer'
p4415
I11
sS'non-degrad'
p4416
I1
sS'right-sid'
p4417
I10
sS'goal-valu'
p4418
I1
sS'default'
p4419
I8
sS'amci'
p4420
I4
sS'tumesc'
p4421
I2
sS'grasp'
p4422
I5
sS'scenario-read'
p4423
I1
sS'stochast'
p4424
I3
sS'amcc'
p4425
I4
sS'mutil'
p4426
I6
sS'scanner'
p4427
I37
sS'individu'
p4428
I308
sS'emotion-process'
p4429
I2
sS'ssri'
p4430
I1
sS'nerv'
p4431
I6
sS'cbp'
p4432
I4
sS'decreas'
p4433
I143
sS'mpfc'
p4434
I38
sS'state-depend'
p4435
I3
sS'neuromatrix'
p4436
I2
sS'encompass'
p4437
I8
sS'fmri-without'
p4438
I1
sS'incorrect'
p4439
I4
sS'igt'
p4440
I4
sS'task-independ'
p4441
I3
sS'task-activ'
p4442
I1
sS'compel'
p4443
I3
sS'achromat'
p4444
I1
sS'orient'
p4445
I23
sS'idiom'
p4446
I1
sS'neurochem'
p4447
I1
sS'compet'
p4448
I10
sS'ignor'
p4449
I8
sS'juic'
p4450
I7
sS'poor'
p4451
I32
sS'polar'
p4452
I3
sS'discours'
p4453
I3
sS'scan-by-scan'
p4454
I1
sS'open-ended'
p4455
I2
sS'symbol'
p4456
I5
sS'breath-hold'
p4457
I2
sS'win-stay'
p4458
I2
sS'multidimension'
p4459
I8
sS'briefli'
p4460
I1
sS'body-part'
p4461
I1
sS'nucleus'
p4462
I77
sS'peak'
p4463
I21
sS'monoamin'
p4464
I2
sS'pool'
p4465
I2
sS'symptom-unrel'
p4466
I1
sS'reduc'
p4467
I145
sS'esa-rsa'
p4468
I1
sS'invest'
p4469
I3
sS'lamotrigin'
p4470
I5
sS'affer'
p4471
I2
sS'high-val'
p4472
I2
sS'subserv'
p4473
I42
sS'potenti'
p4474
I87
sS'apathi'
p4475
I2
sS'bihemispher'
p4476
I2
sS'pain-evok'
p4477
I2
sS'assimil'
p4478
I1
sS'non-word'
p4479
I4
sS'gut-feel'
p4480
I1
sS'moscovitch'
p4481
I3
sS'lack'
p4482
I22
sS'magnetic-reson'
p4483
I1
sS'month'
p4484
I9
sS'correl'
p4485
I374
sS'abil'
p4486
I59
sS'intraderm'
p4487
I2
sS'follow'
p4488
I101
sS'faster'
p4489
I16
sS'ptr'
p4490
I1
sS'-d'
p4491
I1
sS'reward-driven'
p4492
I1
sS'-b'
p4493
I1
sS'non-ocd'
p4494
I1
sS'-h'
p4495
I4
sS'articl'
p4496
I6
sS'-t'
p4497
I11
sS'foster'
p4498
I3
sS'arisen'
p4499
I1
sS'-s'
p4500
I11
sS'health'
p4501
I7
sS'neglig'
p4502
I1
sS'woman'
p4503
I2
sS'outcome-insensit'
p4504
I1
sS'entorhin'
p4505
I3
sS'non-us'
p4506
I1
sS'fat'
p4507
I4
sS'cerebellum'
p4508
I90
sS'psychologist'
p4509
I2
sS'anti-correl'
p4510
I2
sS'worst'
p4511
I1
sS'failur'
p4512
I20
sS'veri'
p4513
I21
sS'archaic'
p4514
I1
sS'common'
p4515
I121
sS'and'
p4516
I6144
sS'interact'
p4517
I136
sS'abstin'
p4518
I54
sS'--'
p4519
I4
sS'list'
p4520
I12
sS'structures-th'
p4521
I1
sS'fluent'
p4522
I7
sS'inanim'
p4523
I1
sS'ageand'
p4524
I13
sS'smith'
p4525
I2
sS'dimens'
p4526
I25
sS'homonym'
p4527
I3
sS'unmark'
p4528
I2
sS'ten'
p4529
I30
sS'skin'
p4530
I23
sS'sinusoid'
p4531
I3
sS'orgasm'
p4532
I7
sS'rate'
p4533
I158
sS'monolingu'
p4534
I1
sS'design'
p4535
I104
sS'fmri-with'
p4536
I1
sS'higher-ord'
p4537
I18
sS'what'
p4538
I29
sS'nonlinear'
p4539
I5
sS'contamination-preoccup'
p4540
I1
sS'sum'
p4541
I5
sS'learner'
p4542
I2
sS'brief'
p4543
I10
sS'affect-rel'
p4544
I1
sS'version'
p4545
I39
sS'intersect'
p4546
I2
sS'consecut'
p4547
I4
sS'deepli'
p4548
I4
sS'discern'
p4549
I2
sS'themselv'
p4550
I5
sS'rehears'
p4551
I3
sS'nameabl'
p4552
I2
sS'ma'
p4553
I5
sS'behaviour'
p4554
I55
sS'non-med'
p4555
I2
sS'orbitali'
p4556
I3
sS'paracingular'
p4557
I1
sS'excess'
p4558
I6
sS'iraq'
p4559
I1
sS'modifi'
p4560
I16
sS'scanpath'
p4561
I2
sS'self-report'
p4562
I33
sS'nontactil'
p4563
I1
sS'traumat'
p4564
I11
sS'ahead'
p4565
I1
sS'non-nocicept'
p4566
I1
sS'single-unit'
p4567
I3
sS'mdma'
p4568
I5
sS'mdd-free'
p4569
I1
sS'reason'
p4570
I27
sS'foveofug'
p4571
I1
sS'soldier'
p4572
I1
sS'amount'
p4573
I26
sS'base'
p4574
I67
sS'contralater'
p4575
I61
sS'vibrotactil'
p4576
I4
sS'magnitud'
p4577
I46
sS'eda'
p4578
I17
sS'medicin'
p4579
I2
sS'block-design'
p4580
I7
sS'proxim'
p4581
I3
sS'gaze-interfer'
p4582
I1
sS'recollection-bas'
p4583
I1
sS'father'
p4584
I1
sS'homeostat'
p4585
I6
sS'vasopressin'
p4586
I1
sS'supramargin'
p4587
I23
sS'put'
p4588
I2
sS'preintervent'
p4589
I1
sS'famili'
p4590
I9
sS'kawashima'
p4591
I1
sS'aggress'
p4592
I12
sS'taker'
p4593
I1
sS'proceed'
p4594
I3
sS'fmr-imag'
p4595
I1
sS'injuri'
p4596
I21
sS'swick'
p4597
I1
sS'nonverb'
p4598
I12
sS'-methylenedioxymethamphetamin'
p4599
I1
sS'formul'
p4600
I4
sS'autonom'
p4601
I14
sS'taken'
p4602
I24
sS'asl'
p4603
I5
sS'hyporespons'
p4604
I5
sS'intensity-equ'
p4605
I1
sS'flat'
p4606
I7
sS'neuron'
p4607
I75
sS'hoffman'
p4608
I1
sS'object-form-specif'
p4609
I1
sS'stutter'
p4610
I26
sS'probabilist'
p4611
I21
sS'known'
p4612
I105
sS'incentive-driven'
p4613
I1
sS'ensu'
p4614
I1
sS'long-rang'
p4615
I1
sS'valuabl'
p4616
I3
sS'pcc-pcu'
p4617
I2
sS'outlin'
p4618
I3
sS'histori'
p4619
I16
sS'non-noxi'
p4620
I5
sS'nine'
p4621
I33
sS'pressure-pain'
p4622
I1
sS'avh'
p4623
I6
sS'higher-resolut'
p4624
I1
sS'veloc'
p4625
I1
sS'affect-laden'
p4626
I1
sS'fear-relev'
p4627
I5
sS'audiovisu'
p4628
I2
sS'suprathreshold'
p4629
I1
sS'cowa'
p4630
I1
sS'medication-fre'
p4631
I12
sS'non-self-imag'
p4632
I3
sS'delay-select'
p4633
I1
sS'partner'
p4634
I16
sS'phrase'
p4635
I13
sS'adas-cog'
p4636
I3
sS'ratio-match'
p4637
I1
sS'near-miss'
p4638
I5
sS'cours'
p4639
I22
sS'goal'
p4640
I26
sS'divid'
p4641
I10
sS'rather'
p4642
I54
sS'anoth'
p4643
I15
sS'perhap'
p4644
I7
sS'divis'
p4645
I10
sS'lmfg'
p4646
I2
sS'option'
p4647
I35
sS'reject'
p4648
I2
sS'resourc'
p4649
I16
sS'threat'
p4650
I16
sS'rude'
p4651
I1
sS'fusiform'
p4652
I118
sS'trial-and-error'
p4653
I1
sS'reflect'
p4654
I138
sS'fa'
p4655
I3
sS'numb'
p4656
I1
sS'fg'
p4657
I4
sS'fh'
p4658
I3
sS'neuropsychiatr'
p4659
I2
sS'fm'
p4660
I10
sS'fo'
p4661
I4
sS'a'
p4662
I2955
sS'stabil'
p4663
I5
sS'undergo'
p4664
I14
sS'house-select'
p4665
I1
sS'overnight'
p4666
I1
sS'ambigu'
p4667
I11
sS'caus'
p4668
I34
sS'custom-built'
p4669
I1
sS'dread'
p4670
I1
sS'random-lett'
p4671
I1
sS'cortico-cort'
p4672
I2
sS'began'
p4673
I5
sS'multivari'
p4674
I4
sS'two-block'
p4675
I1
sS'help'
p4676
I24
sS'word-form'
p4677
I1
sS'semanticand'
p4678
I1
sS'pseudorandom'
p4679
I2
sS'held'
p4680
I11
sS'thermal'
p4681
I37
sS'sensory-motor'
p4682
I2
sS'hierarchi'
p4683
I3
sS'efmri'
p4684
I1
sS'ffa'
p4685
I17
sS'paramet'
p4686
I17
sS'style'
p4687
I3
sS'call'
p4688
I5
sS'non-psychopath'
p4689
I1
sS'eucalor'
p4690
I2
sS'purport'
p4691
I1
sS'complex'
p4692
I92
sS'resort'
p4693
I1
sS'astonish'
p4694
I1
sS'stress-induc'
p4695
I4
sS'bout'
p4696
I1
sS'might'
p4697
I75
sS'alter'
p4698
I74
sS'sensor'
p4699
I1
sS'return'
p4700
I1
sS'food'
p4701
I104
sS'sentenc'
p4702
I166
sS'eat'
p4703
I16
sS'framework'
p4704
I9
sS'aphasia'
p4705
I11
sS'test-retest'
p4706
I2
sS'foot'
p4707
I10
sS'more-delay'
p4708
I1
sS'sclerosi'
p4709
I2
sS'non-specif'
p4710
I2
sS'cannabi'
p4711
I5
sS'infer'
p4712
I16
sS'ifg'
p4713
I39
sS'compris'
p4714
I26
sS'item-rel'
p4715
I6
sS'ceas'
p4716
I1
sS'fulli'
p4717
I12
sS'intervent'
p4718
I13
sS'ifo'
p4719
I9
sS'friendship'
p4720
I5
sS'weight'
p4721
I25
sS'unilater'
p4722
I5
sS'stroop'
p4723
I15
sS'democrat'
p4724
I1
sS'heavi'
p4725
I16
sS'linkag'
p4726
I6
sS'expect'
p4727
I125
sS'inflict'
p4728
I2
sS'indistinguish'
p4729
I1
sS'peripher'
p4730
I10
sS'withinand'
p4731
I1
sS'beyond'
p4732
I11
sS'event'
p4733
I56
sS'nonparanoid'
p4734
I1
sS'perceptu'
p4735
I63
sS'alcohol'
p4736
I115
sS'pwns'
p4737
I2
sS'shortcom'
p4738
I1
sS'publish'
p4739
I21
sS'sustain'
p4740
I41
sS'planum'
p4741
I5
sS'testifi'
p4742
I1
sS'doppler'
p4743
I1
sS'advanc'
p4744
I9
sS'neuropeptid'
p4745
I1
sS'action-plan'
p4746
I1
sS'lesser'
p4747
I8
sS'intensity-match'
p4748
I2
sS'asa'
p4749
I2
sS'heroin'
p4750
I6
sS'asd'
p4751
I68
sS'ask'
p4752
I28
sS'teach'
p4753
I3
sS'basi'
p4754
I88
sS'drug-fre'
p4755
I4
sS'ms'
p4756
I17
sS'self-recognit'
p4757
I4
sS'neurolog'
p4758
I15
sS'appos'
p4759
I1
sS'visual-perceptu'
p4760
I1
sS'caption'
p4761
I3
sS'american'
p4762
I1
sS'schemata'
p4763
I1
sS'circuit'
p4764
I67
sS'gcst'
p4765
I3
sS'lifetim'
p4766
I1
sS'assign'
p4767
I12
sS'feed'
p4768
I4
sS'dine'
p4769
I1
sS'feel'
p4770
I33
sS'well-known'
p4771
I2
sS'elder'
p4772
I8
sS'construct'
p4773
I10
sS'effortless'
p4774
I1
sS'bland'
p4775
I1
sS'miss'
p4776
I7
sS'orofaci'
p4777
I1
sS'subspeci'
p4778
I1
sS'intra-gend'
p4779
I1
sS'script'
p4780
I11
sS'decision-mak'
p4781
I66
sS'mother-inf'
p4782
I2
sS'questionnair'
p4783
I11
sS'bnst'
p4784
I2
sS'stori'
p4785
I3
sS'mosaic'
p4786
I1
sS'frontocort'
p4787
I1
sS'single-shot'
p4788
I1
sS'scheme'
p4789
I3
sS'store'
p4790
I9
sS'statement'
p4791
I4
sS'right-frontopolar-posit'
p4792
I1
sS'hotel'
p4793
I1
sS'lexicosemant'
p4794
I3
sS'basal'
p4795
I24
sS'zero-back'
p4796
I1
sS'pronunci'
p4797
I5
sS'uncus'
p4798
I1
sS'center'
p4799
I19
sS'albeit'
p4800
I5
sS'kind'
p4801
I7
sS'stg'
p4802
I16
sS'postul'
p4803
I10
sS'remot'
p4804
I3
sS'stm'
p4805
I5
sS'remov'
p4806
I2
sS'corticolimb'
p4807
I4
sS'grey'
p4808
I6
sS'neurovascular'
p4809
I2
sS'feature-bas'
p4810
I1
sS'bridg'
p4811
I3
sS'orthograph'
p4812
I18
sS'evinc'
p4813
I1
sS'sts'
p4814
I11
sS'consumpt'
p4815
I16
sS'toward'
p4816
I56
sS'danc'
p4817
I2
sS'frequency-bas'
p4818
I1
sS'phobic'
p4819
I16
sS'phobia'
p4820
I13
sS'exert'
p4821
I7
sS'strengthen'
p4822
I1
sS'o-h'
p4823
I1
sS'higher-level'
p4824
I2
sS'mesencephal'
p4825
I2
sS'hot-cold-chilli'
p4826
I1
sS'electroencephalographi'
p4827
I4
sS'null'
p4828
I1
sS'congruous'
p4829
I3
sS'vfts'
p4830
I5
sS'imagin'
p4831
I18
sS'lif'
p4832
I5
sS'para'
p4833
I2
sS'inferotempor'
p4834
I6
sS'lim'
p4835
I3
sS'dsm-iv-defin'
p4836
I1
sS'bdid'
p4837
I4
sS'chromosom'
p4838
I1
sS'voxelwis'
p4839
I3
sS'syllable-count'
p4840
I1
sS'ffa-right'
p4841
I1
sS'gosselin'
p4842
I1
sS'lis'
p4843
I2
sS'periphery-bias'
p4844
I2
sS'striat'
p4845
I3
sS'value-integr'
p4846
I1
sS'eda-inform'
p4847
I1
sS'indecis'
p4848
I1
sS'choos'
p4849
I14
sS'reach'
p4850
I10
sS'kan'
p4851
I2
sS'react'
p4852
I8
sS'clear-cut'
p4853
I1
sS'prestigi'
p4854
I2
sS'pediatr'
p4855
I8
sS'alpha'
p4856
I7
sS'whichev'
p4857
I1
sS'serotonin'
p4858
I6
sS'hereaft'
p4859
I2
sS'pre-exist'
p4860
I1
sS'clear'
p4861
I37
sS'structure-from-mot'
p4862
I1
sS'self-rel'
p4863
I2
sS'intramuscular'
p4864
I9
sS'tongu'
p4865
I1
sS'subgroup'
p4866
I5
sS'load-sensit'
p4867
I1
sS'phenomenon'
p4868
I9
sS'referr'
p4869
I2
sS'melodi'
p4870
I2
sS'flicker'
p4871
I1
sS'dysfluenc'
p4872
I1
sS'sporad'
p4873
I1
sS'rts'
p4874
I5
sS'de-activ'
p4875
I2
sS'sex-match'
p4876
I6
sS'conjoint'
p4877
I1
sS'penalti'
p4878
I14
sS'drumbeat'
p4879
I1
sS'copyright'
p4880
I92
sS'duncan'
p4881
I1
sS'paranoid'
p4882
I2
sS'antecedent-gap'
p4883
I3
sS'dsm-iv'
p4884
I6
sS'paranoia'
p4885
I1
sS'smoking-sati'
p4886
I1
sS'non-traumat'
p4887
I1
sS'his'
p4888
I4
sS'hit'
p4889
I9
sS'loss-ind'
p4890
I1
sS'mixed-effect'
p4891
I1
sS'exposur'
p4892
I38
sS'blood-flow'
p4893
I1
sS'intensifi'
p4894
I2
sS'blank'
p4895
I1
sS'nativ'
p4896
I17
sS'longest'
p4897
I1
sS'soft-drink'
p4898
I1
sS'nonsemant'
p4899
I4
sS'him'
p4900
I1
sS'freedman'
p4901
I2
sS'adulthood'
p4902
I1
sS'continuum'
p4903
I2
sS'bmi-depend'
p4904
I1
sS'whenev'
p4905
I2
sS'reading-induc'
p4906
I1
sS'statist'
p4907
I52
sS'right-extend'
p4908
I1
sS'x'
p4909
I23
sS'cessat'
p4910
I3
sS'lower-ti'
p4911
I1
sS'case-control'
p4912
I3
sS'seventeen'
p4913
I7
sS'mesial'
p4914
I17
sS'bart'
p4915
I3
sS'delus'
p4916
I2
sS'striatofront'
p4917
I1
sS'two-charact'
p4918
I3
sS'tci'
p4919
I2
sS'proactiv'
p4920
I1
sS'double-blind'
p4921
I8
sS'schizophrenia'
p4922
I240
sS'cortex-anterior'
p4923
I1
sS'bare'
p4924
I7
sS'are'
p4925
I606
sS'close'
p4926
I28
sS'riski'
p4927
I33
sS'skill'
p4928
I24
sS'ma-depend'
p4929
I5
sS'frmi'
p4930
I1
sS'particip'
p4931
I329
sS'won'
p4932
I1
sS'various'
p4933
I22
sS'asperg'
p4934
I5
sS'cuff'
p4935
I1
sS'wof'
p4936
I1
sS'familiar-fac'
p4937
I1
sS'syntact'
p4938
I53
sS'subject-to-subject'
p4939
I1
sS'numer'
p4940
I9
sS'genet'
p4941
I11
sS'sold'
p4942
I1
sS'conjoin'
p4943
I3
sS'isol'
p4944
I12
sS'poorer'
p4945
I5
sS'lowercas'
p4946
I1
sS'succeed'
p4947
I3
sS'distinguish'
p4948
I32
sS'button-box'
p4949
I1
sS'frontopariet'
p4950
I6
sS'c'
p4951
I92
sS'immers'
p4952
I4
sS'bandit'
p4953
I1
sS'undetermin'
p4954
I1
sS'context'
p4955
I108
sS'forgotten'
p4956
I4
sS'milkshak'
p4957
I5
sS'distress'
p4958
I9
sS'disgust-induc'
p4959
I11
sS'proton'
p4960
I1
sS'residu'
p4961
I2
sS'good-bad'
p4962
I3
sS'claustrum'
p4963
I4
sS'batteri'
p4964
I4
sS'mistak'
p4965
I5
sS'category-specif'
p4966
I17
sS'lat-pfc'
p4967
I2
sS'turnov'
p4968
I1
sS'ps'
p4969
I4
sS'preference-depend'
p4970
I1
sS'pv'
p4971
I1
sS'emotion-rel'
p4972
I2
sS'damp'
p4973
I1
sS'territori'
p4974
I2
sS'self-regul'
p4975
I4
sS'flip'
p4976
I1
sS'prosoci'
p4977
I1
sS'whom'
p4978
I6
sS'pa'
p4979
I4
sS'syllabari'
p4980
I2
sS'pg'
p4981
I16
sS'pe'
p4982
I1
sS'threaten'
p4983
I5
sS'bauman'
p4984
I1
sS'twenty-eight'
p4985
I2
sS'pl'
p4986
I4
sS'ganglion'
p4987
I2
sS'time-resolv'
p4988
I1
sS'nonlex'
p4989
I3
sS'imag'
p4990
I747
sS'natl'
p4991
I1
sS'neurotox'
p4992
I1
sS'coordin'
p4993
I18
sS'lexical-semant'
p4994
I4
sS'date-bas'
p4995
I1
sS'reenact'
p4996
I1
sS'heighten'
p4997
I11
sS'highest'
p4998
I11
sS'look'
p4999
I8
sS'valence-specif'
p5000
I2
sS'warrant'
p5001
I1
sS'normal-weight'
p5002
I7
sS'euthymia'
p5003
I4
sS'ramif'
p5004
I1
sS'pace'
p5005
I12
sS'while'
p5006
I343
sS'nicotine-depend'
p5007
I3
sS'match'
p5008
I150
sS'behavior'
p5009
I274
sS'pacc'
p5010
I3
sS'bold-fmri'
p5011
I1
sS'nicotin'
p5012
I36
sS'loop'
p5013
I8
sS'ecstasi'
p5014
I9
sS'feedback-rel'
p5015
I4
sS'leckman'
p5016
I1
sS'herein'
p5017
I1
sS'confound'
p5018
I18
sS'genderand'
p5019
I1
sS'abov'
p5020
I5
sS'shape-match'
p5021
I1
sS'quadrat'
p5022
I3
sS'repetition-prim'
p5023
I2
sS'twofold'
p5024
I1
sS'non-liter'
p5025
I2
sS'minim'
p5026
I10
sS'belong'
p5027
I4
sS'atrophi'
p5028
I2
sS'lengthi'
p5029
I1
sS'split-dos'
p5030
I1
sS'conflict'
p5031
I33
sS'sham'
p5032
I4
sS'polyval'
p5033
I3
sS'maneuv'
p5034
I1
sS'region-of-interest'
p5035
I5
sS'optim'
p5036
I15
sS'painless'
p5037
I1
sS'overweight'
p5038
I8
sS'inflat'
p5039
I1
sS'msfg'
p5040
I3
sS'covari'
p5041
I19
sS'temporari'
p5042
I2
sS'fatti'
p5043
I1
sS'robust'
p5044
I32
sS'specialis'
p5045
I2
sS'built'
p5046
I1
sS'lower'
p5047
I53
sS'els'
p5048
I2
sS'postero-superior'
p5049
I1
sS'older'
p5050
I22
sS'realiz'
p5051
I1
sS'gsh'
p5052
I2
sS'weakest'
p5053
I1
sS'predetermin'
p5054
I1
sS'abstain'
p5055
I3
sS'raceand'
p5056
I1
sS'sublenticular'
p5057
I4
sS'vmpo'
p5058
I1
sS'collabor'
p5059
I2
sS'relianc'
p5060
I2
sS'dorsomedi'
p5061
I13
sS'hypercapn'
p5062
I2
sS'administ'
p5063
I17
sS'off-rat'
p5064
I1
sS'predomin'
p5065
I33
sS'stimul'
p5066
I162
sS'sensation-seek'
p5067
I2
sS'anova'
p5068
I6
sS'lejuez'
p5069
I1
sS'blood-oxygenation-level-depend'
p5070
I2
sS'plateau'
p5071
I1
sS'age-rel'
p5072
I7
sS'pre-post'
p5073
I1
sS'subsequ'
p5074
I51
sS'complaint'
p5075
I3
sS'heterosexu'
p5076
I6
sS'innat'
p5077
I1
sS'glutam'
p5078
I1
sS'morphometri'
p5079
I2
sS'game'
p5080
I11
sS'fronto-striato-thalamo-pariet'
p5081
I1
sS'asoci'
p5082
I1
sS'characterist'
p5083
I37
sS'self-task'
p5084
I2
sS'success'
p5085
I73
sS'photographs-suggest'
p5086
I1
sS'signal'
p5087
I215
sS'resolv'
p5088
I11
sS'self-descript'
p5089
I1
sS'manifest'
p5090
I10
sS'collect'
p5091
I23
sS'wheel-of-fortun'
p5092
I1
sS'valenc'
p5093
I77
sS'eeg'
p5094
I16
sS'counterfactu'
p5095
I1
sS'subcategori'
p5096
I1
sS'lipc'
p5097
I25
sS'lipg'
p5098
I4
sS'saccad'
p5099
I1
sS'some'
p5100
I72
sS'prenat'
p5101
I1
sS'global'
p5102
I10
sS'marker'
p5103
I22
sS'impoverish'
p5104
I1
sS'experienti'
p5105
I2
sS'non-gambl'
p5106
I2
sS'surpris'
p5107
I5
sS'syndrom'
p5108
I15
sS'affili'
p5109
I2
sS'analges'
p5110
I7
sS'chocol'
p5111
I9
sS'debrief'
p5112
I1
sS'rewardand'
p5113
I1
sS'dorsum'
p5114
I3
sS'proc'
p5115
I1
sS'object-recal'
p5116
I3
sS'run'
p5117
I20
sS'reoccur'
p5118
I1
sS'martin'
p5119
I1
sS'rug'
p5120
I2
sS'mixtur'
p5121
I3
sS'sacrif'
p5122
I1
sS'step'
p5123
I12
sS'location-match'
p5124
I3
sS'subtract'
p5125
I23
sS'self-continu'
p5126
I2
sS'postero-dors'
p5127
I1
sS'in-pati'
p5128
I1
sS'memori'
p5129
I602
sS'age-'
p5130
I2
sS'idl'
p5131
I3
sS'modal'
p5132
I30
sS'monochromat'
p5133
I2
sS'block'
p5134
I67
sS'nongain'
p5135
I3
sS'emphasi'
p5136
I4
sS'grapheme-to-phonem'
p5137
I3
sS'within'
p5138
I219
sS'exceed'
p5139
I4
sS'extrasylvian'
p5140
I3
sS'extraperson'
p5141
I1
sS'injury-rel'
p5142
I1
sS'ensur'
p5143
I7
sS'temporal-inferior'
p5144
I1
sS'artifici'
p5145
I1
sS'undertaken'
p5146
I2
sS'triangl'
p5147
I2
sS'predisposit'
p5148
I3
sS'mimicri'
p5149
I2
sS'combinator'
p5150
I1
sS'depression-in'
p5151
I1
sS'amidst'
p5152
I2
sS'adjac'
p5153
I8
sS'arithmet'
p5154
I1
sS'charg'
p5155
I1
sS'combat-rel'
p5156
I2
sS'fasd'
p5157
I6
sS'trait-rel'
p5158
I3
sS'pharmaco-mri'
p5159
I1
sS'himself'
p5160
I1
sS'arbitrarili'
p5161
I1
sS'pws'
p5162
I15
sS'uncontrol'
p5163
I5
sS'newer'
p5164
I1
sS'rmog'
p5165
I1
sS'upright'
p5166
I2
sS'tryptophan'
p5167
I2
sS'pharmacolog'
p5168
I16
sS'quality-control'
p5169
I1
sS'dull'
p5170
I2
sS'rostrolater'
p5171
I1
sS'consist'
p5172
I163
sS'pain-unrel'
p5173
I1
sS'occipitopariet'
p5174
I2
sS'lifespan'
p5175
I1
sS'class-ambigu'
p5176
I1
sS'retinotop'
p5177
I2
sS'fdr'
p5178
I2
sS'modalities-specif'
p5179
I1
sS'highlight'
p5180
I29
sS'z'
p5181
I12
sS'similar'
p5182
I152
sS'spike'
p5183
I1
sS'distraction-attent'
p5184
I1
sS'estrogen'
p5185
I3
sS'tomographi'
p5186
I82
sS'perilesion'
p5187
I2
sS'repres'
p5188
I103
sS'incomplet'
p5189
I3
sS'guarante'
p5190
I1
sS'psychopath'
p5191
I12
sS'spontan'
p5192
I8
sS'spousal'
p5193
I2
sS'nac'
p5194
I14
sS'goal-direct'
p5195
I13
sS'naa'
p5196
I3
sS'sex-rel'
p5197
I3
sS'pronounc'
p5198
I14
sS'water'
p5199
I11
sS'ih-respons'
p5200
I1
sS'gustatori'
p5201
I13
sS'metaphor-specif'
p5202
I1
sS'-striatal'
p5203
I2
sS'fear-monitor'
p5204
I1
sS'draw'
p5205
I27
sS'middleag'
p5206
I1
sS'neutral-val'
p5207
I3
sS'without-arous'
p5208
I1
sS'introduc'
p5209
I10
sS'thirty-two'
p5210
I1
sS'non-visu'
p5211
I1
sS'meaning'
p5212
I2
sS'amplitud'
p5213
I7
sS'neocortex'
p5214
I1
sS'inflamm'
p5215
I1
sS'deperson'
p5216
I2
sS'crossmod'
p5217
I1
sS'case-independ'
p5218
I1
sS'precentr'
p5219
I23
sS'infrequ'
p5220
I2
sS'e'
p5221
I143
sS'vice'
p5222
I3
sS'we'
p5223
I971
sS'orbit'
p5224
I23
sS'remit'
p5225
I6
sS'older-ag'
p5226
I1
sS'depth'
p5227
I3
sS'unconnect'
p5228
I2
sS'non-discriminatori'
p5229
I1
sS'emotion-direct'
p5230
I1
sS'prototyp'
p5231
I4
sS'gt'
p5232
I24
sS'first-hand'
p5233
I1
sS'alien'
p5234
I1
sS'gf'
p5235
I5
sS'ge'
p5236
I4
sS'ritualist'
p5237
I1
sS'go'
p5238
I10
sS'groupwis'
p5239
I1
sS'response-nam'
p5240
I1
sS'superfici'
p5241
I5
sS'cognit'
p5242
I346
sS'emotional-process'
p5243
I1
sS'task-irrelev'
p5244
I1
sS'simon'
p5245
I1
sS'nose'
p5246
I1
sS'reorganis'
p5247
I1
sS'aris'
p5248
I17
sS'preparatori'
p5249
I2
sS'capsaicin-induc'
p5250
I2
sS'spe'
p5251
I1
sS'stimulus-reinforc'
p5252
I3
sS'action-outcom'
p5253
I6
sS'arteri'
p5254
I4
sS'chronic-stag'
p5255
I1
sS'releg'
p5256
I1
sS'wave'
p5257
I1
sS'reinterpret'
p5258
I1
sS'imbalanc'
p5259
I2
sS'electrod'
p5260
I1
sS'relev'
p5261
I39
sS'emotional-rel'
p5262
I1
sS'underweigh'
p5263
I1
sS'rhyming-judg'
p5264
I1
sS'non-food'
p5265
I2
sS'schizophreniform'
p5266
I1
sS'gender'
p5267
I52
sS'button'
p5268
I12
sS'stratifi'
p5269
I1
sS'central-vis'
p5270
I1
sS'provocation-bas'
p5271
I1
sS'convolv'
p5272
I1
sS'hemispher'
p5273
I153
sS'dealt'
p5274
I1
sS'burden'
p5275
I1
sS'cream-bas'
p5276
I1
sS'thalam'
p5277
I13
sS'individual-temperatur'
p5278
I1
sS'pleas'
p5279
I2
sS'smaller'
p5280
I10
sS'pain-rel'
p5281
I24
sS'nonlearn'
p5282
I1
sS'forced-choic'
p5283
I2
sS'acid'
p5284
I3
sS'percentil'
p5285
I1
sS'compat'
p5286
I13
sS'bdd'
p5287
I14
sS'poke'
p5288
I1
sS'undetect'
p5289
I2
sS'compar'
p5290
I437
sS'foci'
p5291
I12
sS'broadman'
p5292
I1
sS'cbf'
p5293
I8
sS'first-ord'
p5294
I1
sS'haxbi'
p5295
I1
sS'cell'
p5296
I3
sS'experiment'
p5297
I66
sS'near-axi'
p5298
I1
sS'juggl'
p5299
I1
sS'bdr'
p5300
I2
sS'repetition-rel'
p5301
I3
sS'non-liv'
p5302
I1
sS'group-specif'
p5303
I1
sS'meg'
p5304
I3
sS'twenty-on'
p5305
I3
sS'fixed-pac'
p5306
I4
sS'kith-and-kin'
p5307
I1
sS'gm'
p5308
I1
sS'ramsey'
p5309
I1
sS'ipv-rel'
p5310
I5
sS'placebo-control'
p5311
I2
sS'convert'
p5312
I1
sS'two-choic'
p5313
I5
sS'convers'
p5314
I13
sS'center-embed'
p5315
I2
sS'guarantor'
p5316
I1
sS'larger'
p5317
I28
sS'lfbf'
p5318
I4
sS'converg'
p5319
I22
sS'nervous'
p5320
I6
sS'dopamin'
p5321
I31
sS'chang'
p5322
I260
sS'gene'
p5323
I7
sS'parent-r'
p5324
I1
sS'chanc'
p5325
I1
sS'face-non'
p5326
I1
sS'-second'
p5327
I2
sS'orbitofront'
p5328
I135
sS'danger'
p5329
I8
sS'win'
p5330
I27
sS'approxim'
p5331
I7
sS'interdepend'
p5332
I2
sS'idiopath'
p5333
I3
sS'wit'
p5334
I5
sS'apo'
p5335
I1
sS'motor'
p5336
I148
sS'cue-driven'
p5337
I1
sS'apa'
p5338
I3
sS'riskless'
p5339
I1
sS'apd'
p5340
I3
sS'use'
p5341
I903
sS'phobia-specif'
p5342
I1
sS'metaphor'
p5343
I65
sS'usa'
p5344
I6
sS'non-domin'
p5345
I2
sS'fibr'
p5346
I1
sS'implic'
p5347
I126
sS'few'
p5348
I16
sS'camera'
p5349
I2
sS'lotteri'
p5350
I4
sS'simpler'
p5351
I3
sS'expression-match'
p5352
I1
sS'sort'
p5353
I4
sS'overrecal'
p5354
I3
sS'penil'
p5355
I4
sS'musician'
p5356
I1
sS'impress'
p5357
I1
sS'loss-rel'
p5358
I1
sS'actual'
p5359
I13
sS'gray-scal'
p5360
I1
sS'interven'
p5361
I2
sS'retriev'
p5362
I158
sS'augment'
p5363
I9
sS'perceiv'
p5364
I52
sS'anmr'
p5365
I1
sS'psycholinguist'
p5366
I2
sS'critic'
p5367
I62
sS'non-human'
p5368
I4
sS'nonsali'
p5369
I2
sS'socioeconom'
p5370
I2
sS'losses-whil'
p5371
I1
sS'meet'
p5372
I3
sS'coherence-build'
p5373
I1
sS'inhibitor'
p5374
I4
sS'ppa'
p5375
I6
sS'unpac'
p5376
I3
sS'spm'
p5377
I19
sS'control'
p5378
I701
sS'tap'
p5379
I5
sS'rapp'
p5380
I2
sS'tax'
p5381
I1
sS'tag'
p5382
I1
sS'attention-rel'
p5383
I1
sS'thirsti'
p5384
I1
sS'sought'
p5385
I15
sS'rescorla-wagn'
p5386
I1
sS'allodyn'
p5387
I3
sS'sip'
p5388
I3
sS'hiv'
p5389
I1
sS'mediotempor'
p5390
I2
sS'equivoc'
p5391
I1
sS'occur'
p5392
I68
sS'sib'
p5393
I6
sS'fmri-bold'
p5394
I1
sS'instead'
p5395
I15
sS'sii'
p5396
I21
sS'poetri'
p5397
I1
sS'circular'
p5398
I2
sS'tension'
p5399
I1
sS'elus'
p5400
I2
sS'lesion'
p5401
I46
sS'non-clos'
p5402
I2
sS'attend'
p5403
I27
sS'neuromagnet'
p5404
I1
sS'risk-allel'
p5405
I2
sS'hazard'
p5406
I5
sS'exemplifi'
p5407
I1
sS'discomfort'
p5408
I3
sS'reward-region'
p5409
I3
sS'elud'
p5410
I1
sS'attent'
p5411
I198
sS'ethnic'
p5412
I1
sS'topograph'
p5413
I2
sS'fratern'
p5414
I1
sS'wellcom'
p5415
I2
sS'english-mandarin'
p5416
I1
sS'incentive-motiv'
p5417
I1
sS'famous'
p5418
I10
sS'light'
p5419
I32
sS'frontotempor'
p5420
I10
sS'temporospati'
p5421
I1
sS'withdraw'
p5422
I11
sS'subtyp'
p5423
I4
sS'sigmoid'
p5424
I2
sS'haemodynam'
p5425
I4
sS'font'
p5426
I5
sS'whilst'
p5427
I11
sS'thulium-yag'
p5428
I2
sS'rapid-present'
p5429
I1
sS'limbic-subcort'
p5430
I1
sS'morpho-phonolog'
p5431
I1
sS'superior'
p5432
I222
sS'post-ltg'
p5433
I1
sS'alway'
p5434
I5
sS'temporal'
p5435
I4
sS'tyler'
p5436
I1
sS'neuroanatomi'
p5437
I6
sS'lexicon-bas'
p5438
I1
sS'underpin'
p5439
I10
sS'ocd-irrelev'
p5440
I1
sS'pixel'
p5441
I3
sS'somatotop'
p5442
I4
sS'mid-cingul'
p5443
I3
sS'handl'
p5444
I3
sS'frontal'
p5445
I606
sS'bifront'
p5446
I1
sS'hypoman'
p5447
I3
sS'personality-link'
p5448
I1
sS'sign-rel'
p5449
I2
sS'interword'
p5450
I1
sS'understood'
p5451
I29
sS'immatur'
p5452
I1
sS'dataset'
p5453
I1
sS'investor'
p5454
I1
sS'nonemot'
p5455
I5
sS'profound'
p5456
I2
sS'edit'
p5457
I1
sS'cheesecak'
p5458
I1
sS'fluency-evok'
p5459
I1
sS'slide'
p5460
I3
sS'telencephalon'
p5461
I2
sS'mode'
p5462
I21
sS'forebrain'
p5463
I10
sS'single-word'
p5464
I6
sS'upward'
p5465
I2
sS'map'
p5466
I86
sS'related'
p5467
I5
sS'dopamine-rich'
p5468
I1
sS'imposit'
p5469
I1
sS'hlm'
p5470
I3
sS'postcentr'
p5471
I11
sS'greyscal'
p5472
I1
sS'interplay'
p5473
I1
sS'left-superior-tempor'
p5474
I1
sS'hlb'
p5475
I2
sS'special'
p5476
I24
sS'upand'
p5477
I3
sS'vision-impl'
p5478
I1
sS'-match'
p5479
I1
sS'influenc'
p5480
I81
sS'categori'
p5481
I91
sS'remiss'
p5482
I11
sS'on-lin'
p5483
I5
sS'suitabl'
p5484
I7
sS'supraspin'
p5485
I2
sS'aphasiolog'
p5486
I1
sS'shelv'
p5487
I1
sS'symptomatolog'
p5488
I5
sS'calif'
p5489
I1
sS'obsess'
p5490
I4
sS'-water'
p5491
I2
sS'neostriatum'
p5492
I1
sS'utensil'
p5493
I3
sS'manipul'
p5494
I61
sS'randomis'
p5495
I1
sS'abductor'
p5496
I1
sS'ecr'
p5497
I1
sS'usual'
p5498
I10
sS'philip'
p5499
I3
sS'gain-rel'
p5500
I1
sS'n-methyl-d-aspart'
p5501
I1
sS'g'
p5502
I88
sS'unwant'
p5503
I2
sS'morphophonolog'
p5504
I1
sS'segreg'
p5505
I13
sS'keep'
p5506
I3
sS'counterpart'
p5507
I4
sS'ltg'
p5508
I2
sS'descript'
p5509
I10
sS'incentive-elicit'
p5510
I1
sS'ltd'
p5511
I14
sS'humphrey'
p5512
I1
sS'lancet'
p5513
I1
sS'ltm'
p5514
I10
sS'uncensor'
p5515
I1
sS'life-long'
p5516
I2
sS'lobuli'
p5517
I1
sS'qualiti'
p5518
I12
sS'hypomania'
p5519
I1
sS'cross-ov'
p5520
I2
sS'echo'
p5521
I3
sS'set'
p5522
I66
sS'drinker'
p5523
I12
sS'prioriti'
p5524
I1
sS'nonword'
p5525
I14
sS'long'
p5526
I21
sS'bdd-relat'
p5527
I1
sS'frontostriat'
p5528
I8
sS'ventrolater'
p5529
I56
sS'rasmussen'
p5530
I1
sS'attach'
p5531
I10
sS'attack'
p5532
I3
sS'foveal'
p5533
I1
sS'salienc'
p5534
I45
sS'brain-imag'
p5535
I1
sS'seed-bas'
p5536
I1
sS'lower-ord'
p5537
I1
sS'thulium'
p5538
I1
sS'misdiagnos'
p5539
I2
sS'final'
p5540
I34
sS'prone'
p5541
I2
sS'sternberg'
p5542
I6
sS'punish'
p5543
I55
sS'methodolog'
p5544
I12
sS'shallow'
p5545
I8
sS'rsa'
p5546
I5
sS'non-sarcast'
p5547
I1
sS'tissu'
p5548
I10
sS'diminish'
p5549
I30
sS'stimulation-induc'
p5550
I1
sS'photograph'
p5551
I21
sS'bid'
p5552
I1
sS'colliculus'
p5553
I1
sS'emotion-sensit'
p5554
I1
sS'onc'
p5555
I11
sS'lion'
p5556
I1
sS'bed'
p5557
I5
sS'siemen'
p5558
I2
sS'ifg-pg'
p5559
I1
sS'collaps'
p5560
I1
sS'spinothalam'
p5561
I1
sS'operculari'
p5562
I8
sS'bet'
p5563
I5
sS'exhibit'
p5564
I82
sS'function'
p5565
I1183
sS'esposito'
p5566
I2
sS'clip'
p5567
I5
sS'favorit'
p5568
I1
sS'msec'
p5569
I3
sS'subgenu'
p5570
I12
sS'coher'
p5571
I21
sS'tabl'
p5572
I1
sS'need'
p5573
I30
sS'madr'
p5574
I1
sS'border'
p5575
I5
sS'prestriat'
p5576
I1
sS'neutral-express'
p5577
I1
sS'probabl'
p5578
I66
sS'diverg'
p5579
I5
sS'rout'
p5580
I5
sS'switch'
p5581
I34
sS'arm'
p5582
I3
sS'fsl-feat'
p5583
I1
sS'motor-rel'
p5584
I2
sS'unawar'
p5585
I2
sS'which'
p5586
I413
sS'tactil'
p5587
I20
sS'intraclass'
p5588
I1
sS'olfactori'
p5589
I7
sS'divers'
p5590
I9
sS'singl'
p5591
I69
sS'textur'
p5592
I4
sS'radioact'
p5593
I1
sS'cortical-subcortical-cerebellar'
p5594
I1
sS'deploy'
p5595
I3
sS'who'
p5596
I62
sS'fronto-tempor'
p5597
I4
sS'discov'
p5598
I4
sS'tool-us'
p5599
I2
sS'monochrom'
p5600
I1
sS'class'
p5601
I42
sS'putat'
p5602
I8
sS'urg'
p5603
I2
sS'neuropsycholog'
p5604
I47
sS'dens'
p5605
I1
sS'inde'
p5606
I2
sS'volume-of-interest'
p5607
I1
sS'risk-tak'
p5608
I15
sS'evolutionarili'
p5609
I1
sS'unknown-happi'
p5610
I1
sS'preoccup'
p5611
I1
sS'constrain'
p5612
I4
sS'obsessive-compuls'
p5613
I6
sS'oddbal'
p5614
I4
sS'one-'
p5615
I1
sS'south-east'
p5616
I1
sS'utter'
p5617
I5
sS'fear'
p5618
I195
sS'high-level'
p5619
I4
sS'ear'
p5620
I1
sS'locat'
p5621
I77
sS'winner'
p5622
I1
sS'basel'
p5623
I2
sS'group-averag'
p5624
I1
sS'dispers'
p5625
I1
sS'smallest'
p5626
I1
sS'prespecifi'
p5627
I3
sS'microl'
p5628
I2
sS'nonrevers'
p5629
I1
sS'discontinu'
p5630
I1
sS'sassa'
p5631
I1
sS'contribut'
p5632
I80
sS'subtest'
p5633
I2
sS'modality-specif'
p5634
I8
sS'dyslex'
p5635
I8
sS'neurolinguist'
p5636
I1
sS'tbi'
p5637
I13
sS'joint'
p5638
I7
sS'cerebellar'
p5639
I28
sS'catecholaminerg'
p5640
I1
sS'non-alex'
p5641
I1
sS'buyer'
p5642
I1
sS'well-tun'
p5643
I1
sS'hypo-respons'
p5644
I2
sS'other-process'
p5645
I1
sS'dps'
p5646
I3
sS'enabl'
p5647
I7
sS'tobacco'
p5648
I9
sS'non-volit'
p5649
I1
sS'right-lateralis'
p5650
I4
sS'neurotransmitt'
p5651
I3
sS'temporooccipit'
p5652
I1
sS'novelty-rel'
p5653
I2
sS'she'
p5654
I1
sS'partit'
p5655
I1
sS'contain'
p5656
I9
sS'view'
p5657
I185
sS'persist'
p5658
I24
sS'knowledg'
p5659
I63
sS'portend'
p5660
I2
sS'computer'
p5661
I1
sS'distract'
p5662
I28
sS'violet'
p5663
I3
sS'closer'
p5664
I2
sS'disjunct'
p5665
I1
sS'aros'
p5666
I1
sS'near-norm'
p5667
I1
sS'frontal-lob'
p5668
I1
sS'visuo-spati'
p5669
I7
sS'homonymi'
p5670
I3
sS'tend'
p5671
I9
sS'favor'
p5672
I8
sS'written'
p5673
I14
sS'physiolog'
p5674
I22
sS'tens'
p5675
I1
sS'chemic'
p5676
I2
sS'neither'
p5677
I6
sS'induc'
p5678
I57
sS'sole'
p5679
I4
sS'pre-select'
p5680
I1
sS'mid-rostrocaud'
p5681
I1
sS'disgust-rel'
p5682
I3
sS'cake'
p5683
I1
sS'entir'
p5684
I7
sS'hypothesis'
p5685
I5
sS'key'
p5686
I35
sS'jog'
p5687
I1
sS'group'
p5688
I486
sS'psfs'
p5689
I3
sS'multilay'
p5690
I1
sS'capsaicin-sensit'
p5691
I1
sS'addit'
p5692
I196
sS'socio-emot'
p5693
I5
sS'large-scal'
p5694
I5
sS'articulatori'
p5695
I2
sS'at-risk'
p5696
I5
sS'exploration-exploit'
p5697
I1
sS'shortand'
p5698
I2
sS'high-profici'
p5699
I1
sS'articul'
p5700
I10
sS'antihyperalgesia'
p5701
I1
sS'nonvisu'
p5702
I1
sS'unclear'
p5703
I45
sS'wall'
p5704
I3
sS'arriv'
p5705
I4
sS'walk'
p5706
I2
sS'non-rep'
p5707
I1
sS'solv'
p5708
I9
sS'autist'
p5709
I22
sS'antipsychot'
p5710
I13
sS'nonchem'
p5711
I1
sS'tryptophan-fre'
p5712
I1
sS'quit'
p5713
I1
sS'stimulus-respons'
p5714
I1
sS'slowli'
p5715
I3
sS'fronto-pariet'
p5716
I7
sS'self-belief'
p5717
I1
sS'compos'
p5718
I4
sS'cent'
p5719
I1
sS'tomograph'
p5720
I3
sS'besid'
p5721
I4
sS'treat'
p5722
I15
sS'whisper'
p5723
I1
sS'reboxetin'
p5724
I2
sS'general'
p5725
I96
sS'both'
p5726
I514
sS'presenc'
p5727
I36
sS'coincid'
p5728
I5
sS'nociceptive-somatosensori'
p5729
I1
sS'high-constraint'
p5730
I1
sS'plausibl'
p5731
I11
sS'present'
p5732
I395
sS'replic'
p5733
I15
sS'novel'
p5734
I42
sS'prearticulatori'
p5735
I1
sS'volit'
p5736
I1
sS'align'
p5737
I2
sS'harder'
p5738
I1
sS'contextu'
p5739
I11
sS'will'
p5740
I14
sS'phenomenolog'
p5741
I1
sS'adi-r'
p5742
I1
sS'observ'
p5743
I272
sS'reward-process'
p5744
I1
sS'engag'
p5745
I151
sS'neurol'
p5746
I1
sS'motor-bas'
p5747
I1
sS'thus'
p5748
I89
sS'motiv'
p5749
I83
sS'dual'
p5750
I7
sS'tje'
p5751
I1
sS'foreign'
p5752
I4
sS'spatial-filt'
p5753
I1
sS'scienc'
p5754
I8
sS'-year-old'
p5755
I7
sS'heschl'
p5756
I4
sS'striatal'
p5757
I59
sS'generic'
p5758
I4
sS'parti'
p5759
I1
sS'balloon'
p5760
I4
sS'cross'
p5761
I7
sS'member'
p5762
I1
sS'spatial-frequ'
p5763
I1
sS'speaker'
p5764
I15
sS'visuospati'
p5765
I19
sS'constel'
p5766
I1
sS'amisulprid'
p5767
I7
sS'inc'
p5768
I58
sS'expression-specif'
p5769
I1
sS'difficult'
p5770
I19
sS'heterozyg'
p5771
I1
sS'neocort'
p5772
I9
sS'yttrium-aluminum-gran'
p5773
I1
sS'interrog'
p5774
I1
sS'effect'
p5775
I347
sS'multisensori'
p5776
I3
sS'stimulus-ord'
p5777
I1
sS'subjac'
p5778
I1
sS'disorder-relev'
p5779
I1
sS'reuptak'
p5780
I3
sS'i'
p5781
I105
sS'well'
p5782
I169
sS'high-perform'
p5783
I2
sS'rifg'
p5784
I9
sS'english'
p5785
I25
sS'salient'
p5786
I17
sS'guidanc'
p5787
I1
sS'sibl'
p5788
I15
sS'ph'
p5789
I1
sS'distanc'
p5790
I6
sS'high-risk'
p5791
I7
sS'mfg'
p5792
I5
sS'mt-there'
p5793
I1
sS'wernick'
p5794
I19
sS'obtain'
p5795
I57
sS'mistaken'
p5796
I1
sS'dose'
p5797
I3
sS'unattract'
p5798
I2
sS'distant'
p5799
I4
sS'heavili'
p5800
I3
sS'simpli'
p5801
I5
sS'dystrobrevin-bind'
p5802
I1
sS'simultan'
p5803
I33
sS'low-level'
p5804
I7
sS'non-clin'
p5805
I3
sS'rapid'
p5806
I29
sS'elsevi'
p5807
I47
sS'stereotypes--may'
p5808
I1
sS'nonrespons'
p5809
I1
sS'distent'
p5810
I1
sS'dopaminergic-motiv'
p5811
I1
sS'cultur'
p5812
I6
sS'densiti'
p5813
I4
sS'face-nam'
p5814
I4
sS'allodynia'
p5815
I17
sS'stimulus-driven'
p5816
I4
sS'yes-no'
p5817
I2
sS'enact'
p5818
I1
sS'agnost'
p5819
I1
sS'adolph'
p5820
I2
sS'mirror-read'
p5821
I3
sS'workload'
p5822
I4
sS'parietal-premotor'
p5823
I1
sS'pre-morbid'
p5824
I1
sS'unseen'
p5825
I1
sS'press'
p5826
I42
sS'psychiatr'
p5827
I22
sS'lost'
p5828
I3
sS'-month-old'
p5829
I1
sS'context-process'
p5830
I1
sS'loser'
p5831
I1
sS'polysubst'
p5832
I1
sS'necessari'
p5833
I13
sS'lose'
p5834
I10
sS'group-by-tim'
p5835
I2
sS'ambival'
p5836
I1
sS'shed'
p5837
I4
sS'partner-rel'
p5838
I2
sS'phenomena'
p5839
I4
sS'okamoto'
p5840
I1
sS'a-x'
p5841
I1
sS'repeat'
p5842
I43
sS'home'
p5843
I1
sS'dysphoria'
p5844
I1
sS'lead'
p5845
I40
sS'broad'
p5846
I13
sS'depth-of-process'
p5847
I1
sS'lean'
p5848
I1
sS'overlap'
p5849
I57
sS'death-rel'
p5850
I7
sS'estim'
p5851
I31
sS'leav'
p5852
I2
sS'thenar'
p5853
I1
sS'hinder'
p5854
I3
sS'encourag'
p5855
I1
sS'investig'
p5856
I293
sS'real-world'
p5857
I2
sS'journal'
p5858
I2
sS'usag'
p5859
I5
sS'anterior-posterior'
p5860
I1
sS'obes'
p5861
I19
sS'lower-intens'
p5862
I1
sS'unsuccess'
p5863
I3
sS'offset'
p5864
I4
sS'instinct'
p5865
I1
sS'monetari'
p5866
I109
sS'dysbindin'
p5867
I1
sS'rare'
p5868
I1
sS'pt'
p5869
I6
sS'carrier'
p5870
I9
sS'substantia'
p5871
I5
sS'mofc'
p5872
I3
sS'conflat'
p5873
I3
sS'own'
p5874
I47
sS'trait-lik'
p5875
I1
sS'owe'
p5876
I2
sS'berridg'
p5877
I1
sS'oxygen-'
p5878
I2
sS'laboratory-bas'
p5879
I1
sS'anterolater'
p5880
I2
sS'automat'
p5881
I32
sS'due'
p5882
I46
sS'primat'
p5883
I11
sS'receptor'
p5884
I17
sS'brush'
p5885
I7
sS'eeg-inform'
p5886
I1
sS'choice-rel'
p5887
I1
sS'pc'
p5888
I2
sS'noxious'
p5889
I46
sS'transfer'
p5890
I6
sS'rotat'
p5891
I8
sS'appl'
p5892
I2
sS'inner'
p5893
I9
sS'replac'
p5894
I2
sS'vas'
p5895
I1
sS'holist'
p5896
I2
sS'vat'
p5897
I3
sS'mthal'
p5898
I1
sS'hz'
p5899
I5
sS'netherland'
p5900
I2
sS'hr'
p5901
I3
sS'hp'
p5902
I6
sS'psychopharmacolog'
p5903
I2
sS'triangular'
p5904
I2
sS'ht'
p5905
I2
sS'neutral'
p5906
I274
sS'hi'
p5907
I1
sS'gain'
p5908
I80
sS'methadon'
p5909
I1
sS'hc'
p5910
I27
sS'eas'
p5911
I3
sS'ha'
p5912
I3
sS'hg'
p5913
I1
sS'paravermi'
p5914
I1
sS'he'
p5915
I7
sS'made'
p5916
I61
sS'cognitive-emot'
p5917
I1
sS'lvs'
p5918
I2
sS'displac'
p5919
I2
sS'whether'
p5920
I241
sS'injur'
p5921
I1
sS'dmn'
p5922
I10
sS'autistic-spectrum'
p5923
I5
sS'record'
p5924
I42
sS'below'
p5925
I6
sS'belov'
p5926
I5
sS'limit'
p5927
I36
sS'desimon'
p5928
I1
sS'steepest'
p5929
I1
sS'signer'
p5930
I4
sS'again'
p5931
I6
sS'panss'
p5932
I3
sS'reward-ind'
p5933
I2
sS'display'
p5934
I49
sS'atyp'
p5935
I25
sS'frith'
p5936
I1
sS'reciproc'
p5937
I11
sS'evalu'
p5938
I105
sS'pathophysiolog'
p5939
I24
sS'left-tl'
p5940
I4
sS'meaningless'
p5941
I3
sS'dearth'
p5942
I1
sS'pmfc'
p5943
I2
sS'pseudolett'
p5944
I2
sS'midand'
p5945
I1
sS'mutual'
p5946
I3
sS'herit'
p5947
I2
sS'-day'
p5948
I3
sS'chocolat'
p5949
I1
sS'percent'
p5950
I2
sS'old'
p5951
I16
sS'other'
p5952
I275
sS'futur'
p5953
I48
sS'rememb'
p5954
I14
sS'disproportion'
p5955
I3
sS'age-of-acquisit'
p5956
I1
sS'pharmacoimag'
p5957
I1
sS'baselin'
p5958
I71
sS'periroland'
p5959
I3
sS'evolutionarily-conserv'
p5960
I1
sS'painand'
p5961
I1
sS'bechara'
p5962
I1
sS'thirty-six'
p5963
I2
sS'stay'
p5964
I1
sS'nida-irp'
p5965
I1
sS'psychogen'
p5966
I1
sS'gap'
p5967
I2
sS'homolog'
p5968
I7
sS'object-initi'
p5969
I3
sS'experienc'
p5970
I28
sS'wherebi'
p5971
I4
sS'atheist'
p5972
I1
sS'reliabl'
p5973
I35
sS'csi'
p5974
I2
sS'stimulus-independ'
p5975
I1
sS'portion'
p5976
I13
sS'emerg'
p5977
I19
sS'auxiliari'
p5978
I1
sS'invari'
p5979
I5
sS'life-death'
p5980
I1
sS'pinyin'
p5981
I8
stp5982
Rp5983
.